
Final Project.elf:     file format elf32-avr

Sections:
Idx Name          Size      VMA       LMA       File off  Algn
  0 .data         000002a0  00800100  000039fa  00003a8e  2**0
                  CONTENTS, ALLOC, LOAD, DATA
  1 .text         000039fa  00000000  00000000  00000094  2**1
                  CONTENTS, ALLOC, LOAD, READONLY, CODE
  2 .bss          0000000c  008003a0  008003a0  00003d2e  2**0
                  ALLOC
  3 .comment      0000005c  00000000  00000000  00003d2e  2**0
                  CONTENTS, READONLY
  4 .note.gnu.avr.deviceinfo 0000003c  00000000  00000000  00003d8c  2**2
                  CONTENTS, READONLY
  5 .debug_aranges 00000238  00000000  00000000  00003dc8  2**0
                  CONTENTS, READONLY, DEBUGGING
  6 .debug_info   00002fe4  00000000  00000000  00004000  2**0
                  CONTENTS, READONLY, DEBUGGING
  7 .debug_abbrev 0000098e  00000000  00000000  00006fe4  2**0
                  CONTENTS, READONLY, DEBUGGING
  8 .debug_line   00001561  00000000  00000000  00007972  2**0
                  CONTENTS, READONLY, DEBUGGING
  9 .debug_frame  000008d0  00000000  00000000  00008ed4  2**2
                  CONTENTS, READONLY, DEBUGGING
 10 .debug_str    00000b6a  00000000  00000000  000097a4  2**0
                  CONTENTS, READONLY, DEBUGGING
 11 .debug_loc    00001ff1  00000000  00000000  0000a30e  2**0
                  CONTENTS, READONLY, DEBUGGING
 12 .debug_ranges 00000220  00000000  00000000  0000c2ff  2**0
                  CONTENTS, READONLY, DEBUGGING

Disassembly of section .text:

00000000 <__vectors>:
       0:	3e c1       	rjmp	.+636    	; 0x27e <__ctors_end>
       2:	00 00       	nop
       4:	5a c1       	rjmp	.+692    	; 0x2ba <__bad_interrupt>
       6:	00 00       	nop
       8:	58 c1       	rjmp	.+688    	; 0x2ba <__bad_interrupt>
       a:	00 00       	nop
       c:	56 c1       	rjmp	.+684    	; 0x2ba <__bad_interrupt>
       e:	00 00       	nop
      10:	54 c1       	rjmp	.+680    	; 0x2ba <__bad_interrupt>
      12:	00 00       	nop
      14:	52 c1       	rjmp	.+676    	; 0x2ba <__bad_interrupt>
      16:	00 00       	nop
      18:	50 c1       	rjmp	.+672    	; 0x2ba <__bad_interrupt>
      1a:	00 00       	nop
      1c:	4e c1       	rjmp	.+668    	; 0x2ba <__bad_interrupt>
      1e:	00 00       	nop
      20:	4c c1       	rjmp	.+664    	; 0x2ba <__bad_interrupt>
      22:	00 00       	nop
      24:	0c 94 97 10 	jmp	0x212e	; 0x212e <__vector_9>
      28:	48 c1       	rjmp	.+656    	; 0x2ba <__bad_interrupt>
      2a:	00 00       	nop
      2c:	0c 94 fb 10 	jmp	0x21f6	; 0x21f6 <__vector_11>
      30:	44 c1       	rjmp	.+648    	; 0x2ba <__bad_interrupt>
      32:	00 00       	nop
      34:	42 c1       	rjmp	.+644    	; 0x2ba <__bad_interrupt>
      36:	00 00       	nop
      38:	40 c1       	rjmp	.+640    	; 0x2ba <__bad_interrupt>
      3a:	00 00       	nop
      3c:	3e c1       	rjmp	.+636    	; 0x2ba <__bad_interrupt>
      3e:	00 00       	nop
      40:	3c c1       	rjmp	.+632    	; 0x2ba <__bad_interrupt>
      42:	00 00       	nop
      44:	3a c1       	rjmp	.+628    	; 0x2ba <__bad_interrupt>
      46:	00 00       	nop
      48:	38 c1       	rjmp	.+624    	; 0x2ba <__bad_interrupt>
      4a:	00 00       	nop
      4c:	36 c1       	rjmp	.+620    	; 0x2ba <__bad_interrupt>
      4e:	00 00       	nop
      50:	34 c1       	rjmp	.+616    	; 0x2ba <__bad_interrupt>
      52:	00 00       	nop
      54:	32 c1       	rjmp	.+612    	; 0x2ba <__bad_interrupt>
      56:	00 00       	nop
      58:	30 c1       	rjmp	.+608    	; 0x2ba <__bad_interrupt>
      5a:	00 00       	nop
      5c:	2e c1       	rjmp	.+604    	; 0x2ba <__bad_interrupt>
      5e:	00 00       	nop
      60:	2c c1       	rjmp	.+600    	; 0x2ba <__bad_interrupt>
      62:	00 00       	nop
      64:	2a c1       	rjmp	.+596    	; 0x2ba <__bad_interrupt>
      66:	00 00       	nop
      68:	28 c1       	rjmp	.+592    	; 0x2ba <__bad_interrupt>
      6a:	00 00       	nop
      6c:	26 c1       	rjmp	.+588    	; 0x2ba <__bad_interrupt>
      6e:	00 00       	nop
      70:	24 c1       	rjmp	.+584    	; 0x2ba <__bad_interrupt>
      72:	00 00       	nop
      74:	22 c1       	rjmp	.+580    	; 0x2ba <__bad_interrupt>
      76:	00 00       	nop
      78:	20 c1       	rjmp	.+576    	; 0x2ba <__bad_interrupt>
      7a:	00 00       	nop
      7c:	1e c1       	rjmp	.+572    	; 0x2ba <__bad_interrupt>
      7e:	00 00       	nop
      80:	1c c1       	rjmp	.+568    	; 0x2ba <__bad_interrupt>
      82:	00 00       	nop
      84:	1a c1       	rjmp	.+564    	; 0x2ba <__bad_interrupt>
      86:	00 00       	nop
      88:	18 c1       	rjmp	.+560    	; 0x2ba <__bad_interrupt>
      8a:	00 00       	nop
      8c:	08 4a       	sbci	r16, 0xA8	; 168
      8e:	d7 3b       	cpi	r29, 0xB7	; 183
      90:	3b ce       	rjmp	.-906    	; 0xfffffd08 <__eeprom_end+0xff7efd08>
      92:	01 6e       	ori	r16, 0xE1	; 225
      94:	84 bc       	out	0x24, r8	; 36
      96:	bf fd       	.word	0xfdbf	; ????
      98:	c1 2f       	mov	r28, r17
      9a:	3d 6c       	ori	r19, 0xCD	; 205
      9c:	74 31       	cpi	r23, 0x14	; 20
      9e:	9a bd       	out	0x2a, r25	; 42
      a0:	56 83       	std	Z+6, r21	; 0x06
      a2:	3d da       	rcall	.-2950   	; 0xfffff51e <__eeprom_end+0xff7ef51e>
      a4:	3d 00       	.word	0x003d	; ????
      a6:	c7 7f       	andi	r28, 0xF7	; 247
      a8:	11 be       	out	0x31, r1	; 49
      aa:	d9 e4       	ldi	r29, 0x49	; 73
      ac:	bb 4c       	sbci	r27, 0xCB	; 203
      ae:	3e 91       	ld	r19, -X
      b0:	6b aa       	std	Y+51, r6	; 0x33
      b2:	aa be       	out	0x3a, r10	; 58
      b4:	00 00       	nop
      b6:	00 80       	ld	r0, Z
      b8:	3f 05       	cpc	r19, r15
      ba:	a8 4c       	sbci	r26, 0xC8	; 200
      bc:	cd b2       	in	r12, 0x1d	; 29
      be:	d4 4e       	sbci	r29, 0xE4	; 228
      c0:	b9 38       	cpi	r27, 0x89	; 137
      c2:	36 a9       	ldd	r19, Z+54	; 0x36
      c4:	02 0c       	add	r0, r2
      c6:	50 b9       	out	0x00, r21	; 0
      c8:	91 86       	std	Z+9, r9	; 0x09
      ca:	88 08       	sbc	r8, r8
      cc:	3c a6       	std	Y+44, r3	; 0x2c
      ce:	aa aa       	std	Y+50, r10	; 0x32
      d0:	2a be       	out	0x3a, r2	; 58
      d2:	00 00       	nop
      d4:	00 80       	ld	r0, Z
      d6:	3f 06       	cpc	r3, r31
      d8:	64 ec       	ldi	r22, 0xC4	; 196
      da:	1b 3c       	cpi	r17, 0xCB	; 203
      dc:	04 bc       	out	0x24, r0	; 36
      de:	16 3e       	cpi	r17, 0xE6	; 230
      e0:	3b e5       	ldi	r19, 0x5B	; 91
      e2:	b9 3c       	cpi	r27, 0xC9	; 201
      e4:	c9 3c       	cpi	r28, 0xC9	; 201
      e6:	37 c2       	rjmp	.+1134   	; 0x556 <move+0x22>
      e8:	9e 5a       	subi	r25, 0xAE	; 174
      ea:	3d 66       	ori	r19, 0x6D	; 109
      ec:	04 98       	cbi	0x00, 4	; 0
      ee:	08 3e       	cpi	r16, 0xE8	; 232
      f0:	ea 69       	ori	r30, 0x9A	; 154
      f2:	aa aa       	std	Y+50, r10	; 0x32
      f4:	3e 00       	.word	0x003e	; ????
      f6:	00 00       	nop
      f8:	80 3f       	cpi	r24, 0xF0	; 240
      fa:	07 63       	ori	r16, 0x37	; 55
      fc:	42 36       	cpi	r20, 0x62	; 98
      fe:	b7 9b       	sbis	0x16, 7	; 22
     100:	d8 a7       	std	Y+40, r29	; 0x28
     102:	1a 39       	cpi	r17, 0x9A	; 154
     104:	68 56       	subi	r22, 0x68	; 104
     106:	18 ae       	std	Y+56, r1	; 0x38
     108:	ba ab       	std	Y+50, r27	; 0x32
     10a:	55 8c       	ldd	r5, Z+29	; 0x1d
     10c:	1d 3c       	cpi	r17, 0xCD	; 205
     10e:	b7 cc       	rjmp	.-1682   	; 0xfffffa7e <__eeprom_end+0xff7efa7e>
     110:	57 63       	ori	r21, 0x37	; 55
     112:	bd 6d       	ori	r27, 0xDD	; 221
     114:	ed fd       	.word	0xfded	; ????
     116:	75 3e       	cpi	r23, 0xE5	; 229
     118:	f6 17       	cp	r31, r22
     11a:	72 31       	cpi	r23, 0x12	; 18
     11c:	bf 00       	.word	0x00bf	; ????
     11e:	00 00       	nop
     120:	80 3f       	cpi	r24, 0xF0	; 240
     122:	08 00       	.word	0x0008	; ????
     124:	00 00       	nop
     126:	be 92       	st	-X, r11
     128:	24 49       	sbci	r18, 0x94	; 148
     12a:	12 3e       	cpi	r17, 0xE2	; 226
     12c:	ab aa       	std	Y+51, r10	; 0x33
     12e:	aa 2a       	or	r10, r26
     130:	be cd       	rjmp	.-1156   	; 0xfffffcae <__eeprom_end+0xff7efcae>
     132:	cc cc       	rjmp	.-1640   	; 0xfffffacc <__eeprom_end+0xff7efacc>
     134:	4c 3e       	cpi	r20, 0xEC	; 236
     136:	00 00       	nop
     138:	00 80       	ld	r0, Z
     13a:	be ab       	std	Y+54, r27	; 0x36
     13c:	aa aa       	std	Y+50, r10	; 0x32
     13e:	aa 3e       	cpi	r26, 0xEA	; 234
     140:	00 00       	nop
     142:	00 00       	nop
     144:	bf 00       	.word	0x00bf	; ????
     146:	00 00       	nop
     148:	80 3f       	cpi	r24, 0xF0	; 240
     14a:	00 00       	nop
     14c:	00 00       	nop
     14e:	00 08       	sbc	r0, r0
     150:	41 78       	andi	r20, 0x81	; 129
     152:	d3 bb       	out	0x13, r29	; 19
     154:	43 87       	std	Z+11, r20	; 0x0b
     156:	d1 13       	cpse	r29, r17
     158:	3d 19       	sub	r19, r13
     15a:	0e 3c       	cpi	r16, 0xCE	; 206
     15c:	c3 bd       	out	0x23, r28	; 35
     15e:	42 82       	std	Z+2, r4	; 0x02
     160:	ad 2b       	or	r26, r29
     162:	3e 68       	ori	r19, 0x8E	; 142
     164:	ec 82       	std	Y+4, r14	; 0x04
     166:	76 be       	out	0x36, r7	; 54
     168:	d9 8f       	std	Y+25, r29	; 0x19
     16a:	e1 a9       	ldd	r30, Z+49	; 0x31
     16c:	3e 4c       	sbci	r19, 0xCE	; 206
     16e:	80 ef       	ldi	r24, 0xF0	; 240
     170:	ff be       	out	0x3f, r15	; 63
     172:	01 c4       	rjmp	.+2050   	; 0x976 <initializations+0x36>
     174:	ff 7f       	andi	r31, 0xFF	; 255
     176:	3f 00       	.word	0x003f	; ????
     178:	00 00       	nop
	...

0000017c <__trampolines_end>:
     17c:	6e 61       	ori	r22, 0x1E	; 30
     17e:	6e 00       	.word	0x006e	; ????

00000180 <__c.2177>:
     180:	69 6e 66 00 00 40 7a 10 f3 5a 00 a0 72 4e 18 09     inf..@z..Z..rN..
     190:	00 10 a5 d4 e8 00 00 e8 76 48 17 00 00 e4 0b 54     ........vH.....T
     1a0:	02 00 00 ca 9a 3b 00 00 00 e1 f5 05 00 00 80 96     .....;..........
     1b0:	98 00 00 00 40 42 0f 00 00 00 a0 86 01 00 00 00     ....@B..........
     1c0:	10 27 00 00 00 00 e8 03 00 00 00 00 64 00 00 00     .'..........d...
     1d0:	00 00 0a 00 00 00 00 00 01 00 00 00 00 00 2c 76     ..............,v
     1e0:	d8 88 dc 67 4f 08 23 df c1 df ae 59 e1 b1 b7 96     ...gO.#....Y....
     1f0:	e5 e3 e4 53 c6 3a e6 51 99 76 96 e8 e6 c2 84 26     ...S.:.Q.v.....&
     200:	eb 89 8c 9b 62 ed 40 7c 6f fc ef bc 9c 9f 40 f2     ....b.@|o.....@.
     210:	ba a5 6f a5 f4 90 05 5a 2a f7 5c 93 6b 6c f9 67     ..o....Z*.\.kl.g
     220:	6d c1 1b fc e0 e4 0d 47 fe f5 20 e6 b5 00 d0 ed     m......G.. .....
     230:	90 2e 03 00 94 35 77 05 00 80 84 1e 08 00 00 20     .....5w........ 
     240:	4e 0a 00 00 00 c8 0c 33 33 33 33 0f 98 6e 12 83     N......3333..n..
     250:	11 41 ef 8d 21 14 89 3b e6 55 16 cf fe e6 db 18     .A..!..;.U......
     260:	d1 84 4b 38 1b f7 7c 1d 90 1d a4 bb e4 24 20 32     ..K8..|......$ 2
     270:	84 72 5e 22 81 00 c9 f1 24 ec a1 e5 3d 27           .r^"....$...='

0000027e <__ctors_end>:
     27e:	11 24       	eor	r1, r1
     280:	1f be       	out	0x3f, r1	; 63
     282:	cf ef       	ldi	r28, 0xFF	; 255
     284:	d0 e1       	ldi	r29, 0x10	; 16
     286:	de bf       	out	0x3e, r29	; 62
     288:	cd bf       	out	0x3d, r28	; 61

0000028a <__do_copy_data>:
     28a:	13 e0       	ldi	r17, 0x03	; 3
     28c:	a0 e0       	ldi	r26, 0x00	; 0
     28e:	b1 e0       	ldi	r27, 0x01	; 1
     290:	ea ef       	ldi	r30, 0xFA	; 250
     292:	f9 e3       	ldi	r31, 0x39	; 57
     294:	00 e0       	ldi	r16, 0x00	; 0
     296:	0b bf       	out	0x3b, r16	; 59
     298:	02 c0       	rjmp	.+4      	; 0x29e <__do_copy_data+0x14>
     29a:	07 90       	elpm	r0, Z+
     29c:	0d 92       	st	X+, r0
     29e:	a0 3a       	cpi	r26, 0xA0	; 160
     2a0:	b1 07       	cpc	r27, r17
     2a2:	d9 f7       	brne	.-10     	; 0x29a <__do_copy_data+0x10>

000002a4 <__do_clear_bss>:
     2a4:	23 e0       	ldi	r18, 0x03	; 3
     2a6:	a0 ea       	ldi	r26, 0xA0	; 160
     2a8:	b3 e0       	ldi	r27, 0x03	; 3
     2aa:	01 c0       	rjmp	.+2      	; 0x2ae <.do_clear_bss_start>

000002ac <.do_clear_bss_loop>:
     2ac:	1d 92       	st	X+, r1

000002ae <.do_clear_bss_start>:
     2ae:	ac 3a       	cpi	r26, 0xAC	; 172
     2b0:	b2 07       	cpc	r27, r18
     2b2:	e1 f7       	brne	.-8      	; 0x2ac <.do_clear_bss_loop>
     2b4:	04 d3       	rcall	.+1544   	; 0x8be <main>
     2b6:	0c 94 fb 1c 	jmp	0x39f6	; 0x39f6 <_exit>

000002ba <__bad_interrupt>:
     2ba:	a2 ce       	rjmp	.-700    	; 0x0 <__vectors>

000002bc <lcd_toggle_clear>:


/// Clears the LCD
void lcd_clear(void) {
	lcd_command(HD_LCD_CLEAR);
	wait_ms(1);
     2bc:	de 9a       	sbi	0x1b, 6	; 27
     2be:	90 e0       	ldi	r25, 0x00	; 0
     2c0:	0e 94 81 10 	call	0x2102	; 0x2102 <wait_ms>
     2c4:	de 98       	cbi	0x1b, 6	; 27
     2c6:	8b b3       	in	r24, 0x1b	; 27
     2c8:	80 7f       	andi	r24, 0xF0	; 240
     2ca:	8b bb       	out	0x1b, r24	; 27
     2cc:	08 95       	ret

000002ce <lcd_command>:
     2ce:	cf 93       	push	r28
     2d0:	c8 2f       	mov	r28, r24
     2d2:	dc 98       	cbi	0x1b, 4	; 27
     2d4:	8b b3       	in	r24, 0x1b	; 27
     2d6:	9c 2f       	mov	r25, r28
     2d8:	92 95       	swap	r25
     2da:	9f 70       	andi	r25, 0x0F	; 15
     2dc:	89 2b       	or	r24, r25
     2de:	8b bb       	out	0x1b, r24	; 27
     2e0:	82 e0       	ldi	r24, 0x02	; 2
     2e2:	ec df       	rcall	.-40     	; 0x2bc <lcd_toggle_clear>
     2e4:	8b b3       	in	r24, 0x1b	; 27
     2e6:	cf 70       	andi	r28, 0x0F	; 15
     2e8:	c8 2b       	or	r28, r24
     2ea:	cb bb       	out	0x1b, r28	; 27
     2ec:	82 e0       	ldi	r24, 0x02	; 2
     2ee:	e6 df       	rcall	.-52     	; 0x2bc <lcd_toggle_clear>
     2f0:	dc 9a       	sbi	0x1b, 4	; 27
     2f2:	cf 91       	pop	r28
     2f4:	08 95       	ret

000002f6 <lcd_home_line1>:



/// Sets character position to first line first position
void lcd_home_line1(void) {
	lcd_command(HD_RETURN_HOME);
     2f6:	82 e0       	ldi	r24, 0x02	; 2
     2f8:	ea cf       	rjmp	.-44     	; 0x2ce <lcd_command>
     2fa:	08 95       	ret

000002fc <lcd_init>:
void lcd_init(void) {
	const char enable=0x40; //PA6 is tied to Enable
	const char rs=0x10;		//PA4 is tied to Register Select
	//Assumes Port A is dedicated to the LCD
	//Seven Pins needed, but will assume all 8 are used
	DDRA=0xFF; //Setting Port A for OutPut
     2fc:	8f ef       	ldi	r24, 0xFF	; 255
     2fe:	8a bb       	out	0x1a, r24	; 26
	 //Preparing to put HD44780 into 4-bit Mod
	PORTA=0x03;
     300:	83 e0       	ldi	r24, 0x03	; 3
     302:	8b bb       	out	0x1b, r24	; 27

	PORTA|=enable;
     304:	de 9a       	sbi	0x1b, 6	; 27
	wait_ms(1);
     306:	81 e0       	ldi	r24, 0x01	; 1
     308:	90 e0       	ldi	r25, 0x00	; 0
     30a:	0e 94 81 10 	call	0x2102	; 0x2102 <wait_ms>
	PORTA&=~enable;
     30e:	de 98       	cbi	0x1b, 6	; 27
	wait_ms(5);
     310:	85 e0       	ldi	r24, 0x05	; 5
     312:	90 e0       	ldi	r25, 0x00	; 0
     314:	0e 94 81 10 	call	0x2102	; 0x2102 <wait_ms>
	PORTA|=enable;
     318:	de 9a       	sbi	0x1b, 6	; 27
	wait_ms(1);
     31a:	81 e0       	ldi	r24, 0x01	; 1
     31c:	90 e0       	ldi	r25, 0x00	; 0
     31e:	0e 94 81 10 	call	0x2102	; 0x2102 <wait_ms>
	PORTA&=~enable;
     322:	de 98       	cbi	0x1b, 6	; 27
	PORTA|=enable;
     324:	de 9a       	sbi	0x1b, 6	; 27
	wait_ms(1);
     326:	81 e0       	ldi	r24, 0x01	; 1
     328:	90 e0       	ldi	r25, 0x00	; 0
     32a:	0e 94 81 10 	call	0x2102	; 0x2102 <wait_ms>
	PORTA&=~enable;
     32e:	de 98       	cbi	0x1b, 6	; 27

	PORTA=0x02;	//setting controller to 4 bit mode
     330:	82 e0       	ldi	r24, 0x02	; 2
     332:	8b bb       	out	0x1b, r24	; 27
				//Need to set for 2 lines
	lcd_toggle_clear(1);
     334:	81 e0       	ldi	r24, 0x01	; 1
     336:	c2 df       	rcall	.-124    	; 0x2bc <lcd_toggle_clear>

	PORTA|=0x00;  //setting disp on, cursor on, blink off
     338:	8b b3       	in	r24, 0x1b	; 27
     33a:	8b bb       	out	0x1b, r24	; 27
	lcd_toggle_clear(1);
     33c:	81 e0       	ldi	r24, 0x01	; 1
     33e:	be df       	rcall	.-132    	; 0x2bc <lcd_toggle_clear>
	PORTA|=0x0E;
     340:	8b b3       	in	r24, 0x1b	; 27
     342:	8e 60       	ori	r24, 0x0E	; 14
     344:	8b bb       	out	0x1b, r24	; 27
	lcd_toggle_clear(1);
     346:	81 e0       	ldi	r24, 0x01	; 1
     348:	b9 df       	rcall	.-142    	; 0x2bc <lcd_toggle_clear>

	PORTA|=0x00; //increment cursor, no display shift
     34a:	8b b3       	in	r24, 0x1b	; 27
     34c:	8b bb       	out	0x1b, r24	; 27
	lcd_toggle_clear(1);
     34e:	81 e0       	ldi	r24, 0x01	; 1
     350:	b5 df       	rcall	.-150    	; 0x2bc <lcd_toggle_clear>
	PORTA|=0x06;
     352:	8b b3       	in	r24, 0x1b	; 27
     354:	86 60       	ori	r24, 0x06	; 6
     356:	8b bb       	out	0x1b, r24	; 27
	lcd_toggle_clear(1);
     358:	81 e0       	ldi	r24, 0x01	; 1
     35a:	b0 df       	rcall	.-160    	; 0x2bc <lcd_toggle_clear>
	
	PORTA|=0x00; //clear LCD
     35c:	8b b3       	in	r24, 0x1b	; 27
     35e:	8b bb       	out	0x1b, r24	; 27
	lcd_toggle_clear(1);
     360:	81 e0       	ldi	r24, 0x01	; 1
     362:	ac df       	rcall	.-168    	; 0x2bc <lcd_toggle_clear>
	PORTA|=0x01;
     364:	d8 9a       	sbi	0x1b, 0	; 27
	lcd_toggle_clear(1);
     366:	81 e0       	ldi	r24, 0x01	; 1
     368:	a9 df       	rcall	.-174    	; 0x2bc <lcd_toggle_clear>

	PORTA|=rs;	//Setting Register select high to enable character mode
     36a:	dc 9a       	sbi	0x1b, 4	; 27
	lcd_home_line1();
     36c:	c4 cf       	rjmp	.-120    	; 0x2f6 <lcd_home_line1>
     36e:	08 95       	ret

00000370 <rotate>:
	}
	
	oi_set_wheels(0, 0);
}

void rotate(oi_t *self, float degrees, robot* bot) {
     370:	4f 92       	push	r4
     372:	5f 92       	push	r5
     374:	6f 92       	push	r6
     376:	7f 92       	push	r7
     378:	8f 92       	push	r8
     37a:	9f 92       	push	r9
     37c:	af 92       	push	r10
     37e:	bf 92       	push	r11
     380:	cf 92       	push	r12
     382:	df 92       	push	r13
     384:	ef 92       	push	r14
     386:	ff 92       	push	r15
     388:	0f 93       	push	r16
     38a:	1f 93       	push	r17
     38c:	cf 93       	push	r28
     38e:	df 93       	push	r29
     390:	ec 01       	movw	r28, r24
     392:	4a 01       	movw	r8, r20
     394:	5b 01       	movw	r10, r22
     396:	89 01       	movw	r16, r18
		float sensordegrees = degrees/1.1; //calibration: make number smaller to oversteer.
     398:	2d ec       	ldi	r18, 0xCD	; 205
     39a:	3c ec       	ldi	r19, 0xCC	; 204
     39c:	4c e8       	ldi	r20, 0x8C	; 140
     39e:	5f e3       	ldi	r21, 0x3F	; 63
     3a0:	c5 01       	movw	r24, r10
     3a2:	b4 01       	movw	r22, r8
     3a4:	0e 94 78 12 	call	0x24f0	; 0x24f0 <__divsf3>
     3a8:	6b 01       	movw	r12, r22
     3aa:	7c 01       	movw	r14, r24
		float toturn = 0;
		
		bot->angle += degrees;
     3ac:	f8 01       	movw	r30, r16
     3ae:	20 85       	ldd	r18, Z+8	; 0x08
     3b0:	31 85       	ldd	r19, Z+9	; 0x09
     3b2:	42 85       	ldd	r20, Z+10	; 0x0a
     3b4:	53 85       	ldd	r21, Z+11	; 0x0b
     3b6:	c5 01       	movw	r24, r10
     3b8:	b4 01       	movw	r22, r8
     3ba:	0e 94 e5 11 	call	0x23ca	; 0x23ca <__addsf3>
     3be:	2b 01       	movw	r4, r22
     3c0:	3c 01       	movw	r6, r24
		
		if (bot->angle < 0) {
     3c2:	20 e0       	ldi	r18, 0x00	; 0
     3c4:	30 e0       	ldi	r19, 0x00	; 0
     3c6:	a9 01       	movw	r20, r18
     3c8:	0e 94 71 12 	call	0x24e2	; 0x24e2 <__cmpsf2>
     3cc:	88 23       	and	r24, r24
     3ce:	74 f4       	brge	.+28     	; 0x3ec <rotate+0x7c>
			bot->angle = 360 + bot->angle;
     3d0:	20 e0       	ldi	r18, 0x00	; 0
     3d2:	30 e0       	ldi	r19, 0x00	; 0
     3d4:	44 eb       	ldi	r20, 0xB4	; 180
     3d6:	53 e4       	ldi	r21, 0x43	; 67
     3d8:	c3 01       	movw	r24, r6
     3da:	b2 01       	movw	r22, r4
     3dc:	0e 94 e5 11 	call	0x23ca	; 0x23ca <__addsf3>
     3e0:	f8 01       	movw	r30, r16
     3e2:	60 87       	std	Z+8, r22	; 0x08
     3e4:	71 87       	std	Z+9, r23	; 0x09
     3e6:	82 87       	std	Z+10, r24	; 0x0a
     3e8:	93 87       	std	Z+11, r25	; 0x0b
     3ea:	1d c0       	rjmp	.+58     	; 0x426 <rotate+0xb6>
			} else if (bot->angle > 360) {
     3ec:	20 e0       	ldi	r18, 0x00	; 0
     3ee:	30 e0       	ldi	r19, 0x00	; 0
     3f0:	44 eb       	ldi	r20, 0xB4	; 180
     3f2:	53 e4       	ldi	r21, 0x43	; 67
     3f4:	c3 01       	movw	r24, r6
     3f6:	b2 01       	movw	r22, r4
     3f8:	0e 94 21 14 	call	0x2842	; 0x2842 <__gesf2>
     3fc:	18 16       	cp	r1, r24
     3fe:	34 f0       	brlt	.+12     	; 0x40c <rotate+0x9c>

void rotate(oi_t *self, float degrees, robot* bot) {
		float sensordegrees = degrees/1.1; //calibration: make number smaller to oversteer.
		float toturn = 0;
		
		bot->angle += degrees;
     400:	f8 01       	movw	r30, r16
     402:	40 86       	std	Z+8, r4	; 0x08
     404:	51 86       	std	Z+9, r5	; 0x09
     406:	62 86       	std	Z+10, r6	; 0x0a
     408:	73 86       	std	Z+11, r7	; 0x0b
     40a:	0d c0       	rjmp	.+26     	; 0x426 <rotate+0xb6>
		
		if (bot->angle < 0) {
			bot->angle = 360 + bot->angle;
			} else if (bot->angle > 360) {
			bot->angle = bot->angle - 360;
     40c:	20 e0       	ldi	r18, 0x00	; 0
     40e:	30 e0       	ldi	r19, 0x00	; 0
     410:	44 eb       	ldi	r20, 0xB4	; 180
     412:	53 e4       	ldi	r21, 0x43	; 67
     414:	c3 01       	movw	r24, r6
     416:	b2 01       	movw	r22, r4
     418:	0e 94 e4 11 	call	0x23c8	; 0x23c8 <__subsf3>
     41c:	f8 01       	movw	r30, r16
     41e:	60 87       	std	Z+8, r22	; 0x08
     420:	71 87       	std	Z+9, r23	; 0x09
     422:	82 87       	std	Z+10, r24	; 0x0a
     424:	93 87       	std	Z+11, r25	; 0x0b
		}
		
		if (degrees > 0){ //rotate CCW
     426:	20 e0       	ldi	r18, 0x00	; 0
     428:	30 e0       	ldi	r19, 0x00	; 0
     42a:	a9 01       	movw	r20, r18
     42c:	c5 01       	movw	r24, r10
     42e:	b4 01       	movw	r22, r8
     430:	0e 94 21 14 	call	0x2842	; 0x2842 <__gesf2>
     434:	18 16       	cp	r1, r24
     436:	74 f5       	brge	.+92     	; 0x494 <rotate+0x124>
			oi_set_wheels(100,-100);
     438:	6c e9       	ldi	r22, 0x9C	; 156
     43a:	7f ef       	ldi	r23, 0xFF	; 255
     43c:	84 e6       	ldi	r24, 0x64	; 100
     43e:	90 e0       	ldi	r25, 0x00	; 0
     440:	0e 94 26 0f 	call	0x1e4c	; 0x1e4c <oi_set_wheels>
			while (toturn < sensordegrees) {
     444:	20 e0       	ldi	r18, 0x00	; 0
     446:	30 e0       	ldi	r19, 0x00	; 0
     448:	a9 01       	movw	r20, r18
     44a:	c7 01       	movw	r24, r14
     44c:	b6 01       	movw	r22, r12
     44e:	0e 94 21 14 	call	0x2842	; 0x2842 <__gesf2>
     452:	18 16       	cp	r1, r24
     454:	1c f5       	brge	.+70     	; 0x49c <rotate+0x12c>
     456:	41 2c       	mov	r4, r1
     458:	51 2c       	mov	r5, r1
     45a:	32 01       	movw	r6, r4
				oi_update(self);
     45c:	ce 01       	movw	r24, r28
     45e:	0e 94 7e 0f 	call	0x1efc	; 0x1efc <oi_update>
				toturn += self->angle;
     462:	6e 85       	ldd	r22, Y+14	; 0x0e
     464:	7f 85       	ldd	r23, Y+15	; 0x0f
     466:	07 2e       	mov	r0, r23
     468:	00 0c       	add	r0, r0
     46a:	88 0b       	sbc	r24, r24
     46c:	99 0b       	sbc	r25, r25
     46e:	0e 94 13 13 	call	0x2626	; 0x2626 <__floatsisf>
     472:	9b 01       	movw	r18, r22
     474:	ac 01       	movw	r20, r24
     476:	c3 01       	movw	r24, r6
     478:	b2 01       	movw	r22, r4
     47a:	0e 94 e5 11 	call	0x23ca	; 0x23ca <__addsf3>
     47e:	2b 01       	movw	r4, r22
     480:	3c 01       	movw	r6, r24
			bot->angle = bot->angle - 360;
		}
		
		if (degrees > 0){ //rotate CCW
			oi_set_wheels(100,-100);
			while (toturn < sensordegrees) {
     482:	9b 01       	movw	r18, r22
     484:	ac 01       	movw	r20, r24
     486:	c7 01       	movw	r24, r14
     488:	b6 01       	movw	r22, r12
     48a:	0e 94 21 14 	call	0x2842	; 0x2842 <__gesf2>
     48e:	18 16       	cp	r1, r24
     490:	2c f3       	brlt	.-54     	; 0x45c <rotate+0xec>
     492:	07 c0       	rjmp	.+14     	; 0x4a2 <rotate+0x132>
	oi_set_wheels(0, 0);
}

void rotate(oi_t *self, float degrees, robot* bot) {
		float sensordegrees = degrees/1.1; //calibration: make number smaller to oversteer.
		float toturn = 0;
     494:	41 2c       	mov	r4, r1
     496:	51 2c       	mov	r5, r1
     498:	32 01       	movw	r6, r4
     49a:	03 c0       	rjmp	.+6      	; 0x4a2 <rotate+0x132>
     49c:	41 2c       	mov	r4, r1
     49e:	51 2c       	mov	r5, r1
     4a0:	32 01       	movw	r6, r4
			while (toturn < sensordegrees) {
				oi_update(self);
				toturn += self->angle;
			}
		}
		if (degrees < 0){ //rotate CW
     4a2:	20 e0       	ldi	r18, 0x00	; 0
     4a4:	30 e0       	ldi	r19, 0x00	; 0
     4a6:	a9 01       	movw	r20, r18
     4a8:	c5 01       	movw	r24, r10
     4aa:	b4 01       	movw	r22, r8
     4ac:	0e 94 71 12 	call	0x24e2	; 0x24e2 <__cmpsf2>
     4b0:	88 23       	and	r24, r24
     4b2:	4c f5       	brge	.+82     	; 0x506 <rotate+0x196>
			oi_set_wheels(-100,100);
     4b4:	64 e6       	ldi	r22, 0x64	; 100
     4b6:	70 e0       	ldi	r23, 0x00	; 0
     4b8:	8c e9       	ldi	r24, 0x9C	; 156
     4ba:	9f ef       	ldi	r25, 0xFF	; 255
     4bc:	0e 94 26 0f 	call	0x1e4c	; 0x1e4c <oi_set_wheels>
			while (toturn > sensordegrees) {
     4c0:	a7 01       	movw	r20, r14
     4c2:	96 01       	movw	r18, r12
     4c4:	c3 01       	movw	r24, r6
     4c6:	b2 01       	movw	r22, r4
     4c8:	0e 94 21 14 	call	0x2842	; 0x2842 <__gesf2>
     4cc:	18 16       	cp	r1, r24
     4ce:	dc f4       	brge	.+54     	; 0x506 <rotate+0x196>
				oi_update(self);
     4d0:	ce 01       	movw	r24, r28
     4d2:	0e 94 7e 0f 	call	0x1efc	; 0x1efc <oi_update>
				toturn += self->angle;
     4d6:	6e 85       	ldd	r22, Y+14	; 0x0e
     4d8:	7f 85       	ldd	r23, Y+15	; 0x0f
     4da:	07 2e       	mov	r0, r23
     4dc:	00 0c       	add	r0, r0
     4de:	88 0b       	sbc	r24, r24
     4e0:	99 0b       	sbc	r25, r25
     4e2:	0e 94 13 13 	call	0x2626	; 0x2626 <__floatsisf>
     4e6:	9b 01       	movw	r18, r22
     4e8:	ac 01       	movw	r20, r24
     4ea:	c3 01       	movw	r24, r6
     4ec:	b2 01       	movw	r22, r4
     4ee:	0e 94 e5 11 	call	0x23ca	; 0x23ca <__addsf3>
     4f2:	2b 01       	movw	r4, r22
     4f4:	3c 01       	movw	r6, r24
				toturn += self->angle;
			}
		}
		if (degrees < 0){ //rotate CW
			oi_set_wheels(-100,100);
			while (toturn > sensordegrees) {
     4f6:	9b 01       	movw	r18, r22
     4f8:	ac 01       	movw	r20, r24
     4fa:	c7 01       	movw	r24, r14
     4fc:	b6 01       	movw	r22, r12
     4fe:	0e 94 71 12 	call	0x24e2	; 0x24e2 <__cmpsf2>
     502:	88 23       	and	r24, r24
     504:	2c f3       	brlt	.-54     	; 0x4d0 <rotate+0x160>
				oi_update(self);
				toturn += self->angle;
			}
		}
		oi_set_wheels(0, 0); // stop
     506:	60 e0       	ldi	r22, 0x00	; 0
     508:	70 e0       	ldi	r23, 0x00	; 0
     50a:	80 e0       	ldi	r24, 0x00	; 0
     50c:	90 e0       	ldi	r25, 0x00	; 0
     50e:	0e 94 26 0f 	call	0x1e4c	; 0x1e4c <oi_set_wheels>
}
     512:	df 91       	pop	r29
     514:	cf 91       	pop	r28
     516:	1f 91       	pop	r17
     518:	0f 91       	pop	r16
     51a:	ff 90       	pop	r15
     51c:	ef 90       	pop	r14
     51e:	df 90       	pop	r13
     520:	cf 90       	pop	r12
     522:	bf 90       	pop	r11
     524:	af 90       	pop	r10
     526:	9f 90       	pop	r9
     528:	8f 90       	pop	r8
     52a:	7f 90       	pop	r7
     52c:	6f 90       	pop	r6
     52e:	5f 90       	pop	r5
     530:	4f 90       	pop	r4
     532:	08 95       	ret

00000534 <move>:
	}
	
	return 0;
}

void move(oi_t *self, float distance_mm, robot *bot) { // Find more accurate way of moving robot
     534:	4f 92       	push	r4
     536:	5f 92       	push	r5
     538:	6f 92       	push	r6
     53a:	7f 92       	push	r7
     53c:	8f 92       	push	r8
     53e:	9f 92       	push	r9
     540:	af 92       	push	r10
     542:	bf 92       	push	r11
     544:	cf 92       	push	r12
     546:	df 92       	push	r13
     548:	ef 92       	push	r14
     54a:	ff 92       	push	r15
     54c:	0f 93       	push	r16
     54e:	1f 93       	push	r17
     550:	cf 93       	push	r28
     552:	df 93       	push	r29
     554:	ec 01       	movw	r28, r24
     556:	4a 01       	movw	r8, r20
     558:	5b 01       	movw	r10, r22
     55a:	89 01       	movw	r16, r18
	float togo = distance_mm/0.11;                    // calculated sensor distance
     55c:	2e ea       	ldi	r18, 0xAE	; 174
     55e:	37 e4       	ldi	r19, 0x47	; 71
     560:	41 ee       	ldi	r20, 0xE1	; 225
     562:	5d e3       	ldi	r21, 0x3D	; 61
     564:	c5 01       	movw	r24, r10
     566:	b4 01       	movw	r22, r8
     568:	0e 94 78 12 	call	0x24f0	; 0x24f0 <__divsf3>
     56c:	2b 01       	movw	r4, r22
     56e:	3c 01       	movw	r6, r24
	float travel = 0;				                    // distance traveled by robot
	bot->dist_traveled = distance_mm;
     570:	f8 01       	movw	r30, r16
     572:	84 86       	std	Z+12, r8	; 0x0c
     574:	95 86       	std	Z+13, r9	; 0x0d
     576:	a6 86       	std	Z+14, r10	; 0x0e
     578:	b7 86       	std	Z+15, r11	; 0x0f
	
	if (distance_mm > 0) {
     57a:	20 e0       	ldi	r18, 0x00	; 0
     57c:	30 e0       	ldi	r19, 0x00	; 0
     57e:	a9 01       	movw	r20, r18
     580:	c5 01       	movw	r24, r10
     582:	b4 01       	movw	r22, r8
     584:	0e 94 21 14 	call	0x2842	; 0x2842 <__gesf2>
     588:	18 16       	cp	r1, r24
     58a:	0c f0       	brlt	.+2      	; 0x58e <move+0x5a>
     58c:	b1 c0       	rjmp	.+354    	; 0x6f0 <move+0x1bc>
		oi_set_wheels(150, 150);
     58e:	66 e9       	ldi	r22, 0x96	; 150
     590:	70 e0       	ldi	r23, 0x00	; 0
     592:	86 e9       	ldi	r24, 0x96	; 150
     594:	90 e0       	ldi	r25, 0x00	; 0
     596:	0e 94 26 0f 	call	0x1e4c	; 0x1e4c <oi_set_wheels>
		
		while (travel < togo) { // Cliff sensors currently calibrated for bot 3
     59a:	20 e0       	ldi	r18, 0x00	; 0
     59c:	30 e0       	ldi	r19, 0x00	; 0
     59e:	a9 01       	movw	r20, r18
     5a0:	c3 01       	movw	r24, r6
     5a2:	b2 01       	movw	r22, r4
     5a4:	0e 94 21 14 	call	0x2842	; 0x2842 <__gesf2>
     5a8:	18 16       	cp	r1, r24
     5aa:	0c f0       	brlt	.+2      	; 0x5ae <move+0x7a>
     5ac:	d7 c0       	rjmp	.+430    	; 0x75c <move+0x228>
			if ((self->cliff_frontleft_signal > 900 || self->cliff_frontleft) || (self->cliff_frontright_signal > 670 || self->cliff_frontright)) {
     5ae:	8e 8d       	ldd	r24, Y+30	; 0x1e
     5b0:	9f 8d       	ldd	r25, Y+31	; 0x1f
     5b2:	85 38       	cpi	r24, 0x85	; 133
     5b4:	93 40       	sbci	r25, 0x03	; 3
     5b6:	38 f5       	brcc	.+78     	; 0x606 <move+0xd2>
     5b8:	8b 81       	ldd	r24, Y+3	; 0x03
     5ba:	81 11       	cpse	r24, r1
     5bc:	24 c0       	rjmp	.+72     	; 0x606 <move+0xd2>
     5be:	88 a1       	ldd	r24, Y+32	; 0x20
     5c0:	99 a1       	ldd	r25, Y+33	; 0x21
     5c2:	8f 39       	cpi	r24, 0x9F	; 159
     5c4:	92 40       	sbci	r25, 0x02	; 2
     5c6:	f8 f4       	brcc	.+62     	; 0x606 <move+0xd2>
     5c8:	8c 81       	ldd	r24, Y+4	; 0x04
     5ca:	81 11       	cpse	r24, r1
     5cc:	1c c0       	rjmp	.+56     	; 0x606 <move+0xd2>
				move(self, -distance_mm, bot);
				break;
			}
			
			if (self->cliff_left_signal > 920 || self->cliff_left) {
     5ce:	8c 8d       	ldd	r24, Y+28	; 0x1c
     5d0:	9d 8d       	ldd	r25, Y+29	; 0x1d
     5d2:	89 39       	cpi	r24, 0x99	; 153
     5d4:	93 40       	sbci	r25, 0x03	; 3
     5d6:	30 f5       	brcc	.+76     	; 0x624 <move+0xf0>
     5d8:	8a 81       	ldd	r24, Y+2	; 0x02
     5da:	81 11       	cpse	r24, r1
     5dc:	23 c0       	rjmp	.+70     	; 0x624 <move+0xf0>
     5de:	c1 2c       	mov	r12, r1
     5e0:	d1 2c       	mov	r13, r1
     5e2:	76 01       	movw	r14, r12
     5e4:	26 c0       	rjmp	.+76     	; 0x632 <move+0xfe>
	
	if (distance_mm > 0) {
		oi_set_wheels(150, 150);
		
		while (travel < togo) { // Cliff sensors currently calibrated for bot 3
			if ((self->cliff_frontleft_signal > 900 || self->cliff_frontleft) || (self->cliff_frontright_signal > 670 || self->cliff_frontright)) {
     5e6:	8e 8d       	ldd	r24, Y+30	; 0x1e
     5e8:	9f 8d       	ldd	r25, Y+31	; 0x1f
     5ea:	85 38       	cpi	r24, 0x85	; 133
     5ec:	93 40       	sbci	r25, 0x03	; 3
     5ee:	58 f4       	brcc	.+22     	; 0x606 <move+0xd2>
     5f0:	8b 81       	ldd	r24, Y+3	; 0x03
     5f2:	81 11       	cpse	r24, r1
     5f4:	08 c0       	rjmp	.+16     	; 0x606 <move+0xd2>
     5f6:	88 a1       	ldd	r24, Y+32	; 0x20
     5f8:	99 a1       	ldd	r25, Y+33	; 0x21
     5fa:	8f 39       	cpi	r24, 0x9F	; 159
     5fc:	92 40       	sbci	r25, 0x02	; 2
     5fe:	18 f4       	brcc	.+6      	; 0x606 <move+0xd2>
     600:	8c 81       	ldd	r24, Y+4	; 0x04
     602:	88 23       	and	r24, r24
     604:	39 f0       	breq	.+14     	; 0x614 <move+0xe0>
				move(self, -distance_mm, bot);
     606:	b5 01       	movw	r22, r10
     608:	a4 01       	movw	r20, r8
     60a:	70 58       	subi	r23, 0x80	; 128
     60c:	98 01       	movw	r18, r16
     60e:	ce 01       	movw	r24, r28
     610:	91 df       	rcall	.-222    	; 0x534 <move>
				break;
     612:	a4 c0       	rjmp	.+328    	; 0x75c <move+0x228>
			}
			
			if (self->cliff_left_signal > 920 || self->cliff_left) {
     614:	8c 8d       	ldd	r24, Y+28	; 0x1c
     616:	9d 8d       	ldd	r25, Y+29	; 0x1d
     618:	89 39       	cpi	r24, 0x99	; 153
     61a:	93 40       	sbci	r25, 0x03	; 3
     61c:	18 f4       	brcc	.+6      	; 0x624 <move+0xf0>
     61e:	8a 81       	ldd	r24, Y+2	; 0x02
     620:	88 23       	and	r24, r24
     622:	39 f0       	breq	.+14     	; 0x632 <move+0xfe>
				move(self, -distance_mm, bot);
     624:	b5 01       	movw	r22, r10
     626:	a4 01       	movw	r20, r8
     628:	70 58       	subi	r23, 0x80	; 128
     62a:	98 01       	movw	r18, r16
     62c:	ce 01       	movw	r24, r28
     62e:	82 df       	rcall	.-252    	; 0x534 <move>
				break;
     630:	95 c0       	rjmp	.+298    	; 0x75c <move+0x228>
			}
			
			if (self->cliff_right_signal > 550 || self->cliff_right) {
     632:	8a a1       	ldd	r24, Y+34	; 0x22
     634:	9b a1       	ldd	r25, Y+35	; 0x23
     636:	87 32       	cpi	r24, 0x27	; 39
     638:	92 40       	sbci	r25, 0x02	; 2
     63a:	18 f4       	brcc	.+6      	; 0x642 <move+0x10e>
     63c:	8d 81       	ldd	r24, Y+5	; 0x05
     63e:	88 23       	and	r24, r24
     640:	39 f0       	breq	.+14     	; 0x650 <move+0x11c>
				move(self, -distance_mm, bot);
     642:	b5 01       	movw	r22, r10
     644:	a4 01       	movw	r20, r8
     646:	70 58       	subi	r23, 0x80	; 128
     648:	98 01       	movw	r18, r16
     64a:	ce 01       	movw	r24, r28
     64c:	73 df       	rcall	.-282    	; 0x534 <move>
				break;
     64e:	86 c0       	rjmp	.+268    	; 0x75c <move+0x228>
			}
			
			if (self->bumper_left) {
     650:	88 81       	ld	r24, Y
     652:	81 ff       	sbrs	r24, 1
     654:	17 c0       	rjmp	.+46     	; 0x684 <move+0x150>
				move(self, -15, bot);
     656:	98 01       	movw	r18, r16
     658:	40 e0       	ldi	r20, 0x00	; 0
     65a:	50 e0       	ldi	r21, 0x00	; 0
     65c:	60 e7       	ldi	r22, 0x70	; 112
     65e:	71 ec       	ldi	r23, 0xC1	; 193
     660:	ce 01       	movw	r24, r28
     662:	68 df       	rcall	.-304    	; 0x534 <move>
				travel -= 15.0/0.115;
				wait_ms(100);
     664:	84 e6       	ldi	r24, 0x64	; 100
     666:	90 e0       	ldi	r25, 0x00	; 0
     668:	0e 94 81 10 	call	0x2102	; 0x2102 <wait_ms>
				rotate(self, -90, bot);
     66c:	98 01       	movw	r18, r16
     66e:	40 e0       	ldi	r20, 0x00	; 0
     670:	50 e0       	ldi	r21, 0x00	; 0
     672:	64 eb       	ldi	r22, 0xB4	; 180
     674:	72 ec       	ldi	r23, 0xC2	; 194
     676:	ce 01       	movw	r24, r28
     678:	7b de       	rcall	.-778    	; 0x370 <rotate>
				wait_ms(100);
     67a:	84 e6       	ldi	r24, 0x64	; 100
     67c:	90 e0       	ldi	r25, 0x00	; 0
     67e:	0e 94 81 10 	call	0x2102	; 0x2102 <wait_ms>
				break;
     682:	6c c0       	rjmp	.+216    	; 0x75c <move+0x228>
			}
			
			if (self->bumper_right) {
     684:	80 ff       	sbrs	r24, 0
     686:	17 c0       	rjmp	.+46     	; 0x6b6 <move+0x182>
				move(self, -15, bot);
     688:	98 01       	movw	r18, r16
     68a:	40 e0       	ldi	r20, 0x00	; 0
     68c:	50 e0       	ldi	r21, 0x00	; 0
     68e:	60 e7       	ldi	r22, 0x70	; 112
     690:	71 ec       	ldi	r23, 0xC1	; 193
     692:	ce 01       	movw	r24, r28
     694:	4f df       	rcall	.-354    	; 0x534 <move>
				travel -= 15.0/0.115;
				wait_ms(100);
     696:	84 e6       	ldi	r24, 0x64	; 100
     698:	90 e0       	ldi	r25, 0x00	; 0
     69a:	0e 94 81 10 	call	0x2102	; 0x2102 <wait_ms>
				rotate(self, 90, bot);
     69e:	98 01       	movw	r18, r16
     6a0:	40 e0       	ldi	r20, 0x00	; 0
     6a2:	50 e0       	ldi	r21, 0x00	; 0
     6a4:	64 eb       	ldi	r22, 0xB4	; 180
     6a6:	72 e4       	ldi	r23, 0x42	; 66
     6a8:	ce 01       	movw	r24, r28
     6aa:	62 de       	rcall	.-828    	; 0x370 <rotate>
				wait_ms(100);
     6ac:	84 e6       	ldi	r24, 0x64	; 100
     6ae:	90 e0       	ldi	r25, 0x00	; 0
     6b0:	0e 94 81 10 	call	0x2102	; 0x2102 <wait_ms>
				break;
     6b4:	53 c0       	rjmp	.+166    	; 0x75c <move+0x228>
			}
			oi_update(self);
     6b6:	ce 01       	movw	r24, r28
     6b8:	0e 94 7e 0f 	call	0x1efc	; 0x1efc <oi_update>
			travel += self->distance;
     6bc:	6c 85       	ldd	r22, Y+12	; 0x0c
     6be:	7d 85       	ldd	r23, Y+13	; 0x0d
     6c0:	07 2e       	mov	r0, r23
     6c2:	00 0c       	add	r0, r0
     6c4:	88 0b       	sbc	r24, r24
     6c6:	99 0b       	sbc	r25, r25
     6c8:	0e 94 13 13 	call	0x2626	; 0x2626 <__floatsisf>
     6cc:	9b 01       	movw	r18, r22
     6ce:	ac 01       	movw	r20, r24
     6d0:	c7 01       	movw	r24, r14
     6d2:	b6 01       	movw	r22, r12
     6d4:	0e 94 e5 11 	call	0x23ca	; 0x23ca <__addsf3>
     6d8:	6b 01       	movw	r12, r22
     6da:	7c 01       	movw	r14, r24
	bot->dist_traveled = distance_mm;
	
	if (distance_mm > 0) {
		oi_set_wheels(150, 150);
		
		while (travel < togo) { // Cliff sensors currently calibrated for bot 3
     6dc:	9b 01       	movw	r18, r22
     6de:	ac 01       	movw	r20, r24
     6e0:	c3 01       	movw	r24, r6
     6e2:	b2 01       	movw	r22, r4
     6e4:	0e 94 21 14 	call	0x2842	; 0x2842 <__gesf2>
     6e8:	18 16       	cp	r1, r24
     6ea:	0c f4       	brge	.+2      	; 0x6ee <move+0x1ba>
     6ec:	7c cf       	rjmp	.-264    	; 0x5e6 <move+0xb2>
     6ee:	36 c0       	rjmp	.+108    	; 0x75c <move+0x228>
				break;
			}
			oi_update(self);
			travel += self->distance;
		}
	} else if (distance_mm < 0) {
     6f0:	20 e0       	ldi	r18, 0x00	; 0
     6f2:	30 e0       	ldi	r19, 0x00	; 0
     6f4:	a9 01       	movw	r20, r18
     6f6:	c5 01       	movw	r24, r10
     6f8:	b4 01       	movw	r22, r8
     6fa:	0e 94 71 12 	call	0x24e2	; 0x24e2 <__cmpsf2>
     6fe:	88 23       	and	r24, r24
     700:	6c f5       	brge	.+90     	; 0x75c <move+0x228>
		oi_set_wheels(-150, -150);
     702:	6a e6       	ldi	r22, 0x6A	; 106
     704:	7f ef       	ldi	r23, 0xFF	; 255
     706:	8a e6       	ldi	r24, 0x6A	; 106
     708:	9f ef       	ldi	r25, 0xFF	; 255
     70a:	0e 94 26 0f 	call	0x1e4c	; 0x1e4c <oi_set_wheels>
		
		while (travel > togo) {
     70e:	20 e0       	ldi	r18, 0x00	; 0
     710:	30 e0       	ldi	r19, 0x00	; 0
     712:	a9 01       	movw	r20, r18
     714:	c3 01       	movw	r24, r6
     716:	b2 01       	movw	r22, r4
     718:	0e 94 71 12 	call	0x24e2	; 0x24e2 <__cmpsf2>
     71c:	88 23       	and	r24, r24
     71e:	f4 f4       	brge	.+60     	; 0x75c <move+0x228>
     720:	c1 2c       	mov	r12, r1
     722:	d1 2c       	mov	r13, r1
     724:	76 01       	movw	r14, r12
			oi_update(self);
     726:	ce 01       	movw	r24, r28
     728:	0e 94 7e 0f 	call	0x1efc	; 0x1efc <oi_update>
			travel += self->distance;
     72c:	8c 85       	ldd	r24, Y+12	; 0x0c
     72e:	9d 85       	ldd	r25, Y+13	; 0x0d
     730:	bc 01       	movw	r22, r24
     732:	99 0f       	add	r25, r25
     734:	88 0b       	sbc	r24, r24
     736:	99 0b       	sbc	r25, r25
     738:	0e 94 13 13 	call	0x2626	; 0x2626 <__floatsisf>
     73c:	9b 01       	movw	r18, r22
     73e:	ac 01       	movw	r20, r24
     740:	c7 01       	movw	r24, r14
     742:	b6 01       	movw	r22, r12
     744:	0e 94 e5 11 	call	0x23ca	; 0x23ca <__addsf3>
     748:	6b 01       	movw	r12, r22
     74a:	7c 01       	movw	r14, r24
			travel += self->distance;
		}
	} else if (distance_mm < 0) {
		oi_set_wheels(-150, -150);
		
		while (travel > togo) {
     74c:	9b 01       	movw	r18, r22
     74e:	ac 01       	movw	r20, r24
     750:	c3 01       	movw	r24, r6
     752:	b2 01       	movw	r22, r4
     754:	0e 94 71 12 	call	0x24e2	; 0x24e2 <__cmpsf2>
     758:	88 23       	and	r24, r24
     75a:	2c f3       	brlt	.-54     	; 0x726 <move+0x1f2>
			oi_update(self);
			travel += self->distance;
		}
	}
	
	oi_set_wheels(0, 0);
     75c:	60 e0       	ldi	r22, 0x00	; 0
     75e:	70 e0       	ldi	r23, 0x00	; 0
     760:	80 e0       	ldi	r24, 0x00	; 0
     762:	90 e0       	ldi	r25, 0x00	; 0
     764:	0e 94 26 0f 	call	0x1e4c	; 0x1e4c <oi_set_wheels>
}
     768:	df 91       	pop	r29
     76a:	cf 91       	pop	r28
     76c:	1f 91       	pop	r17
     76e:	0f 91       	pop	r16
     770:	ff 90       	pop	r15
     772:	ef 90       	pop	r14
     774:	df 90       	pop	r13
     776:	cf 90       	pop	r12
     778:	bf 90       	pop	r11
     77a:	af 90       	pop	r10
     77c:	9f 90       	pop	r9
     77e:	8f 90       	pop	r8
     780:	7f 90       	pop	r7
     782:	6f 90       	pop	r6
     784:	5f 90       	pop	r5
     786:	4f 90       	pop	r4
     788:	08 95       	ret

0000078a <get_command>:
			}
		}
		oi_set_wheels(0, 0); // stop
}

void get_command(control c, obstacle* obst, oi_t *self, robot* bot) {
     78a:	af 92       	push	r10
     78c:	bf 92       	push	r11
     78e:	cf 92       	push	r12
     790:	df 92       	push	r13
     792:	ef 92       	push	r14
     794:	ff 92       	push	r15
     796:	0f 93       	push	r16
     798:	1f 93       	push	r17
     79a:	cf 93       	push	r28
     79c:	df 93       	push	r29
     79e:	cd b7       	in	r28, 0x3d	; 61
     7a0:	de b7       	in	r29, 0x3e	; 62
     7a2:	29 97       	sbiw	r28, 0x09	; 9
     7a4:	0f b6       	in	r0, 0x3f	; 63
     7a6:	f8 94       	cli
     7a8:	de bf       	out	0x3e, r29	; 62
     7aa:	0f be       	out	0x3f, r0	; 63
     7ac:	cd bf       	out	0x3d, r28	; 61
     7ae:	09 83       	std	Y+1, r16	; 0x01
     7b0:	1a 83       	std	Y+2, r17	; 0x02
     7b2:	2b 83       	std	Y+3, r18	; 0x03
     7b4:	3c 83       	std	Y+4, r19	; 0x04
     7b6:	4d 83       	std	Y+5, r20	; 0x05
     7b8:	5e 83       	std	Y+6, r21	; 0x06
     7ba:	6f 83       	std	Y+7, r22	; 0x07
     7bc:	78 87       	std	Y+8, r23	; 0x08
     7be:	89 87       	std	Y+9, r24	; 0x09
	if (c.user_command == 'w') {
     7c0:	07 37       	cpi	r16, 0x77	; 119
     7c2:	69 f4       	brne	.+26     	; 0x7de <get_command+0x54>
		move(self, c.travel_dist, bot);
     7c4:	61 2f       	mov	r22, r17
     7c6:	6f 70       	andi	r22, 0x0F	; 15
     7c8:	70 e0       	ldi	r23, 0x00	; 0
     7ca:	80 e0       	ldi	r24, 0x00	; 0
     7cc:	90 e0       	ldi	r25, 0x00	; 0
     7ce:	0e 94 11 13 	call	0x2622	; 0x2622 <__floatunsisf>
     7d2:	ab 01       	movw	r20, r22
     7d4:	bc 01       	movw	r22, r24
     7d6:	95 01       	movw	r18, r10
     7d8:	c6 01       	movw	r24, r12
     7da:	ac de       	rcall	.-680    	; 0x534 <move>
     7dc:	5b c0       	rjmp	.+182    	; 0x894 <get_command+0x10a>
	} else if (c.user_command == 'a') {
     7de:	01 36       	cpi	r16, 0x61	; 97
     7e0:	a1 f4       	brne	.+40     	; 0x80a <get_command+0x80>
		rotate(self, c.angle_to_turn, bot);
     7e2:	6a 81       	ldd	r22, Y+2	; 0x02
     7e4:	86 2f       	mov	r24, r22
     7e6:	82 95       	swap	r24
     7e8:	8f 70       	andi	r24, 0x0F	; 15
     7ea:	6b 81       	ldd	r22, Y+3	; 0x03
     7ec:	63 70       	andi	r22, 0x03	; 3
     7ee:	62 95       	swap	r22
     7f0:	60 7f       	andi	r22, 0xF0	; 240
     7f2:	68 2b       	or	r22, r24
     7f4:	70 e0       	ldi	r23, 0x00	; 0
     7f6:	80 e0       	ldi	r24, 0x00	; 0
     7f8:	90 e0       	ldi	r25, 0x00	; 0
     7fa:	0e 94 11 13 	call	0x2622	; 0x2622 <__floatunsisf>
     7fe:	ab 01       	movw	r20, r22
     800:	bc 01       	movw	r22, r24
     802:	95 01       	movw	r18, r10
     804:	c6 01       	movw	r24, r12
     806:	b4 dd       	rcall	.-1176   	; 0x370 <rotate>
     808:	45 c0       	rjmp	.+138    	; 0x894 <get_command+0x10a>
	} else if (c.user_command == 'd') {
     80a:	04 36       	cpi	r16, 0x64	; 100
     80c:	c9 f4       	brne	.+50     	; 0x840 <get_command+0xb6>
		rotate(self, -c.angle_to_turn, bot);
     80e:	6a 81       	ldd	r22, Y+2	; 0x02
     810:	86 2f       	mov	r24, r22
     812:	82 95       	swap	r24
     814:	8f 70       	andi	r24, 0x0F	; 15
     816:	6b 81       	ldd	r22, Y+3	; 0x03
     818:	63 70       	andi	r22, 0x03	; 3
     81a:	62 95       	swap	r22
     81c:	60 7f       	andi	r22, 0xF0	; 240
     81e:	68 2b       	or	r22, r24
     820:	70 e0       	ldi	r23, 0x00	; 0
     822:	71 95       	neg	r23
     824:	61 95       	neg	r22
     826:	71 09       	sbc	r23, r1
     828:	07 2e       	mov	r0, r23
     82a:	00 0c       	add	r0, r0
     82c:	88 0b       	sbc	r24, r24
     82e:	99 0b       	sbc	r25, r25
     830:	0e 94 13 13 	call	0x2626	; 0x2626 <__floatsisf>
     834:	ab 01       	movw	r20, r22
     836:	bc 01       	movw	r22, r24
     838:	95 01       	movw	r18, r10
     83a:	c6 01       	movw	r24, r12
     83c:	99 dd       	rcall	.-1230   	; 0x370 <rotate>
     83e:	2a c0       	rjmp	.+84     	; 0x894 <get_command+0x10a>
	} else if (c.user_command == 'q') {
     840:	01 37       	cpi	r16, 0x71	; 113
     842:	69 f4       	brne	.+26     	; 0x85e <get_command+0xd4>
		sweep(obst, bot);
     844:	b5 01       	movw	r22, r10
     846:	c7 01       	movw	r24, r14
     848:	0e 94 74 0e 	call	0x1ce8	; 0x1ce8 <sweep>
		print_and_process_stats(obst);
     84c:	c7 01       	movw	r24, r14
     84e:	df d5       	rcall	.+3006   	; 0x140e <print_and_process_stats>
		reset(obst, bot, &c);
     850:	ae 01       	movw	r20, r28
     852:	4f 5f       	subi	r20, 0xFF	; 255
     854:	5f 4f       	sbci	r21, 0xFF	; 255
     856:	b5 01       	movw	r22, r10
     858:	c7 01       	movw	r24, r14
     85a:	65 d4       	rcall	.+2250   	; 0x1126 <reset>
     85c:	1b c0       	rjmp	.+54     	; 0x894 <get_command+0x10a>
	} else {
		oi_load_song(c.s1_id, c.s1_num_notes, c.s1_notes, c.s1_duration);
     85e:	8b 81       	ldd	r24, Y+3	; 0x03
     860:	e8 2f       	mov	r30, r24
     862:	e6 95       	lsr	r30
     864:	e6 95       	lsr	r30
     866:	e6 95       	lsr	r30
     868:	e3 70       	andi	r30, 0x03	; 3
     86a:	6e 2f       	mov	r22, r30
     86c:	70 e0       	ldi	r23, 0x00	; 0
     86e:	9e 01       	movw	r18, r28
     870:	29 5f       	subi	r18, 0xF9	; 249
     872:	3f 4f       	sbci	r19, 0xFF	; 255
     874:	ae 01       	movw	r20, r28
     876:	4c 5f       	subi	r20, 0xFC	; 252
     878:	5f 4f       	sbci	r21, 0xFF	; 255
     87a:	82 fb       	bst	r24, 2
     87c:	88 27       	eor	r24, r24
     87e:	80 f9       	bld	r24, 0
     880:	90 e0       	ldi	r25, 0x00	; 0
     882:	0e 94 3d 0f 	call	0x1e7a	; 0x1e7a <oi_load_song>
		oi_play_song(c.s1_id);
     886:	8b 81       	ldd	r24, Y+3	; 0x03
     888:	82 fb       	bst	r24, 2
     88a:	88 27       	eor	r24, r24
     88c:	80 f9       	bld	r24, 0
     88e:	90 e0       	ldi	r25, 0x00	; 0
     890:	0e 94 6e 0f 	call	0x1edc	; 0x1edc <oi_play_song>
	}
	update_information(obst, bot, self);
     894:	a6 01       	movw	r20, r12
     896:	b5 01       	movw	r22, r10
     898:	c7 01       	movw	r24, r14
     89a:	36 d1       	rcall	.+620    	; 0xb08 <update_information>
}
     89c:	29 96       	adiw	r28, 0x09	; 9
     89e:	0f b6       	in	r0, 0x3f	; 63
     8a0:	f8 94       	cli
     8a2:	de bf       	out	0x3e, r29	; 62
     8a4:	0f be       	out	0x3f, r0	; 63
     8a6:	cd bf       	out	0x3d, r28	; 61
     8a8:	df 91       	pop	r29
     8aa:	cf 91       	pop	r28
     8ac:	1f 91       	pop	r17
     8ae:	0f 91       	pop	r16
     8b0:	ff 90       	pop	r15
     8b2:	ef 90       	pop	r14
     8b4:	df 90       	pop	r13
     8b6:	cf 90       	pop	r12
     8b8:	bf 90       	pop	r11
     8ba:	af 90       	pop	r10
     8bc:	08 95       	ret

000008be <main>:
#include "lcd.h"
#include "main.h"
#include <math.h>

int main(void)
{
     8be:	cf 93       	push	r28
     8c0:	df 93       	push	r29
     8c2:	cd b7       	in	r28, 0x3d	; 61
     8c4:	de b7       	in	r29, 0x3e	; 62
     8c6:	ce 5a       	subi	r28, 0xAE	; 174
     8c8:	d3 40       	sbci	r29, 0x03	; 3
     8ca:	0f b6       	in	r0, 0x3f	; 63
     8cc:	f8 94       	cli
     8ce:	de bf       	out	0x3e, r29	; 62
     8d0:	0f be       	out	0x3f, r0	; 63
     8d2:	cd bf       	out	0x3d, r28	; 61
	control c;
	obstacle obst;
	robot bot;
    oi_t *sensor_data = oi_alloc();
     8d4:	0e 94 f7 0e 	call	0x1dee	; 0x1dee <oi_alloc>
     8d8:	4c 01       	movw	r8, r24
	bot.initialized = 0; // Has to be called only once and before reset
     8da:	c2 55       	subi	r28, 0x52	; 82
     8dc:	dc 4f       	sbci	r29, 0xFC	; 252
     8de:	88 81       	ld	r24, Y
     8e0:	ce 5a       	subi	r28, 0xAE	; 174
     8e2:	d3 40       	sbci	r29, 0x03	; 3
     8e4:	8e 7f       	andi	r24, 0xFE	; 254
     8e6:	c2 55       	subi	r28, 0x52	; 82
     8e8:	dc 4f       	sbci	r29, 0xFC	; 252
     8ea:	88 83       	st	Y, r24
     8ec:	ce 5a       	subi	r28, 0xAE	; 174
     8ee:	d3 40       	sbci	r29, 0x03	; 3
	reset(&obst, &bot, &c);
     8f0:	ae 01       	movw	r20, r28
     8f2:	4f 5f       	subi	r20, 0xFF	; 255
     8f4:	5f 4f       	sbci	r21, 0xFF	; 255
     8f6:	be 01       	movw	r22, r28
     8f8:	62 56       	subi	r22, 0x62	; 98
     8fa:	7c 4f       	sbci	r23, 0xFC	; 252
     8fc:	ce 01       	movw	r24, r28
     8fe:	0a 96       	adiw	r24, 0x0a	; 10
     900:	12 d4       	rcall	.+2084   	; 0x1126 <reset>
    oi_init(sensor_data);
     902:	c4 01       	movw	r24, r8
     904:	0e 94 3b 10 	call	0x2076	; 0x2076 <oi_init>
	
	while (1) {
		oi_update(sensor_data);
     908:	c4 01       	movw	r24, r8
     90a:	0e 94 7e 0f 	call	0x1efc	; 0x1efc <oi_update>
		
		c.user_command = USART_Receive();
     90e:	0e 94 d2 11 	call	0x23a4	; 0x23a4 <USART_Receive>
     912:	08 2f       	mov	r16, r24
     914:	89 83       	std	Y+1, r24	; 0x01
		
		get_command(c, &obst, sensor_data, &bot);
     916:	ce 01       	movw	r24, r28
     918:	82 56       	subi	r24, 0x62	; 98
     91a:	9c 4f       	sbci	r25, 0xFC	; 252
     91c:	5c 01       	movw	r10, r24
     91e:	64 01       	movw	r12, r8
     920:	84 59       	subi	r24, 0x94	; 148
     922:	93 40       	sbci	r25, 0x03	; 3
     924:	7c 01       	movw	r14, r24
     926:	1a 81       	ldd	r17, Y+2	; 0x02
     928:	2b 81       	ldd	r18, Y+3	; 0x03
     92a:	3c 81       	ldd	r19, Y+4	; 0x04
     92c:	4d 81       	ldd	r20, Y+5	; 0x05
     92e:	5e 81       	ldd	r21, Y+6	; 0x06
     930:	6f 81       	ldd	r22, Y+7	; 0x07
     932:	78 85       	ldd	r23, Y+8	; 0x08
     934:	89 85       	ldd	r24, Y+9	; 0x09
     936:	29 df       	rcall	.-430    	; 0x78a <get_command>
		
		USART_Transmit(c.user_command);
     938:	89 81       	ldd	r24, Y+1	; 0x01
     93a:	0e 94 ce 11 	call	0x239c	; 0x239c <USART_Transmit>
	}
     93e:	e4 cf       	rjmp	.-56     	; 0x908 <main+0x4a>

00000940 <initializations>:
#include <math.h>
#include "lcd.h"
#include "util.h"
#include "object_tracking.h"

void initializations(obstacle* obst, robot* bot, control* c) {
     940:	ef 92       	push	r14
     942:	ff 92       	push	r15
     944:	0f 93       	push	r16
     946:	1f 93       	push	r17
     948:	cf 93       	push	r28
     94a:	df 93       	push	r29
     94c:	ec 01       	movw	r28, r24
     94e:	7b 01       	movw	r14, r22
     950:	8a 01       	movw	r16, r20
	obst->degrees = 0.0; // Start angle at 0
     952:	18 82       	st	Y, r1
     954:	19 82       	std	Y+1, r1	; 0x01
     956:	1a 82       	std	Y+2, r1	; 0x02
     958:	1b 82       	std	Y+3, r1	; 0x03
	
	lcd_init();               // Initialize LCD
     95a:	d0 dc       	rcall	.-1632   	; 0x2fc <lcd_init>
	ADC_init();               // Initialize IR
     95c:	0e 94 ae 10 	call	0x215c	; 0x215c <ADC_init>
	ping_timer_init();        // Initialize Ping
     960:	0e 94 e4 10 	call	0x21c8	; 0x21c8 <ping_timer_init>
	servo_timer_init();       // Initialize Servo
     964:	0e 94 52 11 	call	0x22a4	; 0x22a4 <servo_timer_init>
	USART_Init(UBRR);         // Initialize USART for Bluetooth communication
     968:	82 e2       	ldi	r24, 0x22	; 34
     96a:	90 e0       	ldi	r25, 0x00	; 0
     96c:	0e 94 c3 11 	call	0x2386	; 0x2386 <USART_Init>
	move_servo(&obst->degrees);     // Move Servo to starting position
     970:	ce 01       	movw	r24, r28
     972:	0e 94 69 11 	call	0x22d2	; 0x22d2 <move_servo>
	wait_ms(500);             // Wait for Servo to settle
     976:	84 ef       	ldi	r24, 0xF4	; 244
     978:	91 e0       	ldi	r25, 0x01	; 1
     97a:	0e 94 81 10 	call	0x2102	; 0x2102 <wait_ms>
	
	/* IR Variable Initializations */
	obst->cur_dist_IR = 0.0;
     97e:	1d 82       	std	Y+5, r1	; 0x05
     980:	1c 82       	std	Y+4, r1	; 0x04
	obst->last_dist_IR = 0.0;
     982:	1f 82       	std	Y+7, r1	; 0x07
     984:	1e 82       	std	Y+6, r1	; 0x06
	obst->total_dist_IR = 0.0;
     986:	19 86       	std	Y+9, r1	; 0x09
     988:	18 86       	std	Y+8, r1	; 0x08
	obst->start_angle_IR = 0.0;
     98a:	1a 86       	std	Y+10, r1	; 0x0a
	obst->end_angle_IR = 0.0;
     98c:	1b 86       	std	Y+11, r1	; 0x0b
	obst->object_detected = 0.0; // Using ^= to toggle breaks program if used a lot. Why?
     98e:	8c 85       	ldd	r24, Y+12	; 0x0c
     990:	8e 7f       	andi	r24, 0xFE	; 254
     992:	8c 87       	std	Y+12, r24	; 0x0c
	//obst->all_object_index = 0.0;
	obst->cur_obj_size_IR = 20.0;
     994:	8c 85       	ldd	r24, Y+12	; 0x0c
     996:	81 7c       	andi	r24, 0xC1	; 193
     998:	88 62       	ori	r24, 0x28	; 40
     99a:	8c 87       	std	Y+12, r24	; 0x0c
	
	/* SONAR Variable Initializations */
	obst->cur_dist_SONAR = 0.0;
     99c:	1d 86       	std	Y+13, r1	; 0x0d
     99e:	1e 86       	std	Y+14, r1	; 0x0e
     9a0:	1f 86       	std	Y+15, r1	; 0x0f
     9a2:	18 8a       	std	Y+16, r1	; 0x10
	obst->last_dist_SONAR = 0.0;
     9a4:	19 8a       	std	Y+17, r1	; 0x11
     9a6:	1a 8a       	std	Y+18, r1	; 0x12
     9a8:	1b 8a       	std	Y+19, r1	; 0x13
     9aa:	1c 8a       	std	Y+20, r1	; 0x14
	obst->start_dist_SONAR = 0.0;
     9ac:	1d 8a       	std	Y+21, r1	; 0x15
	obst->end_dist_SONAR = 0.0;
     9ae:	1e 8a       	std	Y+22, r1	; 0x16
	
	/* Smallest Object Variable Initializations */
	obst->smallest_obj_angular_size = 50.0;
     9b0:	8f 89       	ldd	r24, Y+23	; 0x17
     9b2:	80 7c       	andi	r24, 0xC0	; 192
     9b4:	82 63       	ori	r24, 0x32	; 50
     9b6:	8f 8b       	std	Y+23, r24	; 0x17
	obst->smallest_obj_linear_size = LARGE_OBJECT_SIZE_MIN;
     9b8:	8f 89       	ldd	r24, Y+23	; 0x17
     9ba:	80 6c       	ori	r24, 0xC0	; 192
     9bc:	8f 8b       	std	Y+23, r24	; 0x17
     9be:	88 8d       	ldd	r24, Y+24	; 0x18
     9c0:	88 7f       	andi	r24, 0xF8	; 248
     9c2:	82 60       	ori	r24, 0x02	; 2
     9c4:	88 8f       	std	Y+24, r24	; 0x18
	obst->smallest_obj_dist_SONAR = 0.0;
     9c6:	19 8e       	std	Y+25, r1	; 0x19
	obst->smallest_obj_dist_IR = 0.0;
     9c8:	1a 8e       	std	Y+26, r1	; 0x1a
	obst->smallest_obj_position = 0.0;
     9ca:	1b 8e       	std	Y+27, r1	; 0x1b
     9cc:	1c 8e       	std	Y+28, r1	; 0x1c
     9ce:	1d 8e       	std	Y+29, r1	; 0x1d
     9d0:	1e 8e       	std	Y+30, r1	; 0x1e
	
	/* Closest Object Variable Initializations */
	obst->closest_obj_angular_size = 0.0;
     9d2:	8f 8d       	ldd	r24, Y+31	; 0x1f
     9d4:	80 7c       	andi	r24, 0xC0	; 192
     9d6:	8f 8f       	std	Y+31, r24	; 0x1f
	obst->closest_obj_linear_size = 0.0;
     9d8:	8f 8d       	ldd	r24, Y+31	; 0x1f
     9da:	8f 73       	andi	r24, 0x3F	; 63
     9dc:	8f 8f       	std	Y+31, r24	; 0x1f
     9de:	88 a1       	ldd	r24, Y+32	; 0x20
     9e0:	88 7f       	andi	r24, 0xF8	; 248
     9e2:	88 a3       	std	Y+32, r24	; 0x20
	obst->closest_obj_dist_SONAR = 341.0; // Approximate SONAR Range Limit
     9e4:	85 e5       	ldi	r24, 0x55	; 85
     9e6:	91 e0       	ldi	r25, 0x01	; 1
     9e8:	9a a3       	std	Y+34, r25	; 0x22
     9ea:	89 a3       	std	Y+33, r24	; 0x21
	obst->closest_obj_dist_IR = 2752.0;   // Approximate IR Range Limit
     9ec:	80 ec       	ldi	r24, 0xC0	; 192
     9ee:	9a e0       	ldi	r25, 0x0A	; 10
     9f0:	9c a3       	std	Y+36, r25	; 0x24
     9f2:	8b a3       	std	Y+35, r24	; 0x23
	obst->closest_obj_position = 0.0;
     9f4:	1d a2       	std	Y+37, r1	; 0x25
     9f6:	1e a2       	std	Y+38, r1	; 0x26
     9f8:	1f a2       	std	Y+39, r1	; 0x27
     9fa:	18 a6       	std	Y+40, r1	; 0x28
	
	/* Object Validation Level Initialization */
	obst->validation_level = 0.0;
     9fc:	19 a6       	std	Y+41, r1	; 0x29
	
	/* Robot Coordinates Initialization */
	if (bot->initialized == 0) {
     9fe:	f7 01       	movw	r30, r14
     a00:	80 89       	ldd	r24, Z+16	; 0x10
     a02:	80 fd       	sbrc	r24, 0
     a04:	1a c0       	rjmp	.+52     	; 0xa3a <initializations+0xfa>
		bot->x = 0.0;
     a06:	10 82       	st	Z, r1
     a08:	11 82       	std	Z+1, r1	; 0x01
     a0a:	12 82       	std	Z+2, r1	; 0x02
     a0c:	13 82       	std	Z+3, r1	; 0x03
		bot->y = 0.0;
     a0e:	14 82       	std	Z+4, r1	; 0x04
     a10:	15 82       	std	Z+5, r1	; 0x05
     a12:	16 82       	std	Z+6, r1	; 0x06
     a14:	17 82       	std	Z+7, r1	; 0x07
		bot->angle = 90.0;
     a16:	80 e0       	ldi	r24, 0x00	; 0
     a18:	90 e0       	ldi	r25, 0x00	; 0
     a1a:	a4 eb       	ldi	r26, 0xB4	; 180
     a1c:	b2 e4       	ldi	r27, 0x42	; 66
     a1e:	80 87       	std	Z+8, r24	; 0x08
     a20:	91 87       	std	Z+9, r25	; 0x09
     a22:	a2 87       	std	Z+10, r26	; 0x0a
     a24:	b3 87       	std	Z+11, r27	; 0x0b
		bot->dist_traveled = 0.0;
     a26:	14 86       	std	Z+12, r1	; 0x0c
     a28:	15 86       	std	Z+13, r1	; 0x0d
     a2a:	16 86       	std	Z+14, r1	; 0x0e
     a2c:	17 86       	std	Z+15, r1	; 0x0f
		bot->initialized ^= 1;
     a2e:	80 89       	ldd	r24, Z+16	; 0x10
     a30:	98 2f       	mov	r25, r24
     a32:	90 95       	com	r25
     a34:	90 fb       	bst	r25, 0
     a36:	80 f9       	bld	r24, 0
     a38:	80 8b       	std	Z+16, r24	; 0x10
	}
	
	/* Main Initializations */
	c->travel_dist = 15;   // cm
	c->angle_to_turn = 45; // degrees
     a3a:	8f ed       	ldi	r24, 0xDF	; 223
     a3c:	f8 01       	movw	r30, r16
     a3e:	81 83       	std	Z+1, r24	; 0x01
     a40:	82 81       	ldd	r24, Z+2	; 0x02
     a42:	8c 7f       	andi	r24, 0xFC	; 252
	c->s1_id = 1;
	c->s1_num_notes = 3;
     a44:	8e 61       	ori	r24, 0x1E	; 30
     a46:	82 83       	std	Z+2, r24	; 0x02
	for (int i = 0; i < c->s1_num_notes; i++) {
		c->s1_notes[i] = 36;
     a48:	94 e2       	ldi	r25, 0x24	; 36
     a4a:	93 83       	std	Z+3, r25	; 0x03
		c->s1_duration[i] = 15;
     a4c:	8f e0       	ldi	r24, 0x0F	; 15
     a4e:	86 83       	std	Z+6, r24	; 0x06
	c->travel_dist = 15;   // cm
	c->angle_to_turn = 45; // degrees
	c->s1_id = 1;
	c->s1_num_notes = 3;
	for (int i = 0; i < c->s1_num_notes; i++) {
		c->s1_notes[i] = 36;
     a50:	94 83       	std	Z+4, r25	; 0x04
		c->s1_duration[i] = 15;
     a52:	87 83       	std	Z+7, r24	; 0x07
	c->travel_dist = 15;   // cm
	c->angle_to_turn = 45; // degrees
	c->s1_id = 1;
	c->s1_num_notes = 3;
	for (int i = 0; i < c->s1_num_notes; i++) {
		c->s1_notes[i] = 36;
     a54:	95 83       	std	Z+5, r25	; 0x05
		c->s1_duration[i] = 15;
     a56:	80 87       	std	Z+8, r24	; 0x08
	}
	
	/* Goal Post Variables to Analyze */
	obst->goal_post_index = 0; // Amount of goal posts found. There are 4 posts total so 3 bits will suffice.
     a58:	c6 5b       	subi	r28, 0xB6	; 182
     a5a:	df 4f       	sbci	r29, 0xFF	; 255
     a5c:	88 81       	ld	r24, Y
     a5e:	88 7f       	andi	r24, 0xF8	; 248
     a60:	88 83       	st	Y, r24
	
	/*Obstacle Variables to Analyze
	obst->obst_index = 0; // Amount of goal posts found. There are 4 posts total so 3 bits will suffice.*/
	
	// Note: Object array does not need to be initialized
}
     a62:	df 91       	pop	r29
     a64:	cf 91       	pop	r28
     a66:	1f 91       	pop	r17
     a68:	0f 91       	pop	r16
     a6a:	ff 90       	pop	r15
     a6c:	ef 90       	pop	r14
     a6e:	08 95       	ret

00000a70 <get_linear_width>:
	
	/* Find Closest Object */
	find_closest_obj(obst);
}

char get_linear_width(obstacle* obst) {
     a70:	8f 92       	push	r8
     a72:	9f 92       	push	r9
     a74:	af 92       	push	r10
     a76:	bf 92       	push	r11
     a78:	cf 92       	push	r12
     a7a:	df 92       	push	r13
     a7c:	ef 92       	push	r14
     a7e:	ff 92       	push	r15
	return 2 * obst->all_objects_array[obst->all_object_index][ALL_DISTANCE_SONAR] * tan((obst->all_objects_array[obst->all_object_index][ALL_ANGULAR_WIDTH] * (3.141516/180)) / 2); // sin((3.141516/180) * obst->object_array[obst->object_index][ANGULAR_WIDTH]) * obst->object_array[obst->object_index][DISTANCE_SONAR];
     a80:	dc 01       	movw	r26, r24
     a82:	ad 56       	subi	r26, 0x6D	; 109
     a84:	bc 4f       	sbci	r27, 0xFC	; 252
     a86:	2c 91       	ld	r18, X
     a88:	2f 70       	andi	r18, 0x0F	; 15
     a8a:	4c e1       	ldi	r20, 0x1C	; 28
     a8c:	fc 01       	movw	r30, r24
     a8e:	42 9f       	mul	r20, r18
     a90:	e0 0d       	add	r30, r0
     a92:	f1 1d       	adc	r31, r1
     a94:	11 24       	eor	r1, r1
     a96:	ed 5a       	subi	r30, 0xAD	; 173
     a98:	ff 4f       	sbci	r31, 0xFF	; 255
     a9a:	c0 80       	ld	r12, Z
     a9c:	d1 80       	ldd	r13, Z+1	; 0x01
     a9e:	e2 80       	ldd	r14, Z+2	; 0x02
     aa0:	f3 80       	ldd	r15, Z+3	; 0x03
     aa2:	3c 91       	ld	r19, X
     aa4:	3f 70       	andi	r19, 0x0F	; 15
     aa6:	43 9f       	mul	r20, r19
     aa8:	80 0d       	add	r24, r0
     aaa:	91 1d       	adc	r25, r1
     aac:	11 24       	eor	r1, r1
     aae:	fc 01       	movw	r30, r24
     ab0:	e5 5b       	subi	r30, 0xB5	; 181
     ab2:	ff 4f       	sbci	r31, 0xFF	; 255
     ab4:	60 81       	ld	r22, Z
     ab6:	71 81       	ldd	r23, Z+1	; 0x01
     ab8:	82 81       	ldd	r24, Z+2	; 0x02
     aba:	93 81       	ldd	r25, Z+3	; 0x03
     abc:	20 e5       	ldi	r18, 0x50	; 80
     abe:	39 ef       	ldi	r19, 0xF9	; 249
     ac0:	4e e8       	ldi	r20, 0x8E	; 142
     ac2:	5c e3       	ldi	r21, 0x3C	; 60
     ac4:	0e 94 2c 14 	call	0x2858	; 0x2858 <__mulsf3>
     ac8:	20 e0       	ldi	r18, 0x00	; 0
     aca:	30 e0       	ldi	r19, 0x00	; 0
     acc:	40 e0       	ldi	r20, 0x00	; 0
     ace:	5f e3       	ldi	r21, 0x3F	; 63
     ad0:	0e 94 2c 14 	call	0x2858	; 0x2858 <__mulsf3>
     ad4:	0e 94 26 15 	call	0x2a4c	; 0x2a4c <tan>
     ad8:	4b 01       	movw	r8, r22
     ada:	5c 01       	movw	r10, r24
     adc:	a7 01       	movw	r20, r14
     ade:	96 01       	movw	r18, r12
     ae0:	c7 01       	movw	r24, r14
     ae2:	b6 01       	movw	r22, r12
     ae4:	0e 94 e5 11 	call	0x23ca	; 0x23ca <__addsf3>
     ae8:	a5 01       	movw	r20, r10
     aea:	94 01       	movw	r18, r8
     aec:	0e 94 2c 14 	call	0x2858	; 0x2858 <__mulsf3>
     af0:	0e 94 e5 12 	call	0x25ca	; 0x25ca <__fixunssfsi>
     af4:	86 2f       	mov	r24, r22
}
     af6:	ff 90       	pop	r15
     af8:	ef 90       	pop	r14
     afa:	df 90       	pop	r13
     afc:	cf 90       	pop	r12
     afe:	bf 90       	pop	r11
     b00:	af 90       	pop	r10
     b02:	9f 90       	pop	r9
     b04:	8f 90       	pop	r8
     b06:	08 95       	ret

00000b08 <update_information>:

void update_information(obstacle* obst, robot* bot, oi_t* self) {
     b08:	2f 92       	push	r2
     b0a:	3f 92       	push	r3
     b0c:	4f 92       	push	r4
     b0e:	5f 92       	push	r5
     b10:	6f 92       	push	r6
     b12:	7f 92       	push	r7
     b14:	8f 92       	push	r8
     b16:	9f 92       	push	r9
     b18:	af 92       	push	r10
     b1a:	bf 92       	push	r11
     b1c:	cf 92       	push	r12
     b1e:	df 92       	push	r13
     b20:	ef 92       	push	r14
     b22:	ff 92       	push	r15
     b24:	0f 93       	push	r16
     b26:	1f 93       	push	r17
     b28:	cf 93       	push	r28
     b2a:	df 93       	push	r29
     b2c:	cd b7       	in	r28, 0x3d	; 61
     b2e:	de b7       	in	r29, 0x3e	; 62
     b30:	c0 54       	subi	r28, 0x40	; 64
     b32:	d1 09       	sbc	r29, r1
     b34:	0f b6       	in	r0, 0x3f	; 63
     b36:	f8 94       	cli
     b38:	de bf       	out	0x3e, r29	; 62
     b3a:	0f be       	out	0x3f, r0	; 63
     b3c:	cd bf       	out	0x3d, r28	; 61
     b3e:	2c 01       	movw	r4, r24
     b40:	3b 01       	movw	r6, r22
	char buffer[50];
	bot->x = bot->x + bot->dist_traveled * cos(bot->angle * (3.141516/180)); // Update robot x coordinate
     b42:	db 01       	movw	r26, r22
     b44:	1c 96       	adiw	r26, 0x0c	; 12
     b46:	cd 90       	ld	r12, X+
     b48:	dd 90       	ld	r13, X+
     b4a:	ed 90       	ld	r14, X+
     b4c:	fc 90       	ld	r15, X
     b4e:	1f 97       	sbiw	r26, 0x0f	; 15
     b50:	20 e5       	ldi	r18, 0x50	; 80
     b52:	39 ef       	ldi	r19, 0xF9	; 249
     b54:	4e e8       	ldi	r20, 0x8E	; 142
     b56:	5c e3       	ldi	r21, 0x3C	; 60
     b58:	18 96       	adiw	r26, 0x08	; 8
     b5a:	6d 91       	ld	r22, X+
     b5c:	7d 91       	ld	r23, X+
     b5e:	8d 91       	ld	r24, X+
     b60:	9c 91       	ld	r25, X
     b62:	1b 97       	sbiw	r26, 0x0b	; 11
     b64:	0e 94 2c 14 	call	0x2858	; 0x2858 <__mulsf3>
     b68:	4b 01       	movw	r8, r22
     b6a:	5c 01       	movw	r10, r24
     b6c:	0e 94 75 12 	call	0x24ea	; 0x24ea <cos>
     b70:	9b 01       	movw	r18, r22
     b72:	ac 01       	movw	r20, r24
     b74:	c7 01       	movw	r24, r14
     b76:	b6 01       	movw	r22, r12
     b78:	0e 94 2c 14 	call	0x2858	; 0x2858 <__mulsf3>
     b7c:	9b 01       	movw	r18, r22
     b7e:	ac 01       	movw	r20, r24
     b80:	f3 01       	movw	r30, r6
     b82:	60 81       	ld	r22, Z
     b84:	71 81       	ldd	r23, Z+1	; 0x01
     b86:	82 81       	ldd	r24, Z+2	; 0x02
     b88:	93 81       	ldd	r25, Z+3	; 0x03
     b8a:	0e 94 e5 11 	call	0x23ca	; 0x23ca <__addsf3>
     b8e:	d3 01       	movw	r26, r6
     b90:	6d 93       	st	X+, r22
     b92:	7d 93       	st	X+, r23
     b94:	8d 93       	st	X+, r24
     b96:	9c 93       	st	X, r25
     b98:	13 97       	sbiw	r26, 0x03	; 3
	bot->y = bot->y + bot->dist_traveled * sin(bot->angle * (3.141516/180)); // Update robot y coordinate
     b9a:	c5 01       	movw	r24, r10
     b9c:	b4 01       	movw	r22, r8
     b9e:	0e 94 db 14 	call	0x29b6	; 0x29b6 <sin>
     ba2:	9b 01       	movw	r18, r22
     ba4:	ac 01       	movw	r20, r24
     ba6:	c7 01       	movw	r24, r14
     ba8:	b6 01       	movw	r22, r12
     baa:	0e 94 2c 14 	call	0x2858	; 0x2858 <__mulsf3>
     bae:	9b 01       	movw	r18, r22
     bb0:	ac 01       	movw	r20, r24
     bb2:	f3 01       	movw	r30, r6
     bb4:	64 81       	ldd	r22, Z+4	; 0x04
     bb6:	75 81       	ldd	r23, Z+5	; 0x05
     bb8:	86 81       	ldd	r24, Z+6	; 0x06
     bba:	97 81       	ldd	r25, Z+7	; 0x07
     bbc:	0e 94 e5 11 	call	0x23ca	; 0x23ca <__addsf3>
     bc0:	d3 01       	movw	r26, r6
     bc2:	14 96       	adiw	r26, 0x04	; 4
     bc4:	6d 93       	st	X+, r22
     bc6:	7d 93       	st	X+, r23
     bc8:	8d 93       	st	X+, r24
     bca:	9c 93       	st	X, r25
     bcc:	17 97       	sbiw	r26, 0x07	; 7
	
	if (obst->all_object_index > 0) { // Are there objects to keep track of? If so, update the objects distance and angle in respect to the robot
     bce:	f2 01       	movw	r30, r4
     bd0:	ed 56       	subi	r30, 0x6D	; 109
     bd2:	fc 4f       	sbci	r31, 0xFC	; 252
     bd4:	80 81       	ld	r24, Z
     bd6:	8f 70       	andi	r24, 0x0F	; 15
     bd8:	09 f4       	brne	.+2      	; 0xbdc <update_information+0xd4>
     bda:	58 c2       	rjmp	.+1200   	; 0x108c <update_information+0x584>
		for (int i = 0; i < obst->all_object_index; i++) { // Loop through total detected objects
     bdc:	80 81       	ld	r24, Z
     bde:	8f 70       	andi	r24, 0x0F	; 15
     be0:	09 f4       	brne	.+2      	; 0xbe4 <update_information+0xdc>
     be2:	54 c2       	rjmp	.+1192   	; 0x108c <update_information+0x584>
     be4:	21 2c       	mov	r2, r1
     be6:	31 2c       	mov	r3, r1
			obst->all_objects_array[i][ALL_DISTANCE_SONAR] = sqrt( pow(bot->x - obst->all_objects_array[i][ALL_X], 2) + pow(bot->y - obst->all_objects_array[i][ALL_Y], 2) ); // Apply distance formula
     be8:	0f 2e       	mov	r0, r31
     bea:	fc e1       	ldi	r31, 0x1C	; 28
     bec:	df 2e       	mov	r13, r31
     bee:	f0 2d       	mov	r31, r0
				sprintf(buffer, "\r\nObstacle %d Coordinates: (%lf, %lf)\r\n", i, obst->all_objects_array[i][ALL_X], obst->all_objects_array[i][ALL_Y]);
				send_message(buffer);
				sprintf(buffer, "\r\nObstacle %d Distance: %lf | Position %lf", i, obst->all_objects_array[i][ALL_DISTANCE_SONAR], obst->all_objects_array[i][ALL_POSITION]);
				send_message(buffer);
			} else {
				sprintf(buffer, "\r\nGoal Post %d Coordinates: (%lf, %lf)\r\n", i, obst->all_objects_array[i][ALL_X], obst->all_objects_array[i][ALL_Y]);
     bf0:	fe 01       	movw	r30, r28
     bf2:	31 96       	adiw	r30, 0x01	; 1
     bf4:	7f 01       	movw	r14, r30
	char buffer[50];
	bot->x = bot->x + bot->dist_traveled * cos(bot->angle * (3.141516/180)); // Update robot x coordinate
	bot->y = bot->y + bot->dist_traveled * sin(bot->angle * (3.141516/180)); // Update robot y coordinate
	
	if (obst->all_object_index > 0) { // Are there objects to keep track of? If so, update the objects distance and angle in respect to the robot
		for (int i = 0; i < obst->all_object_index; i++) { // Loop through total detected objects
     bf6:	c2 01       	movw	r24, r4
     bf8:	8d 56       	subi	r24, 0x6D	; 109
     bfa:	9c 4f       	sbci	r25, 0xFC	; 252
     bfc:	21 96       	adiw	r28, 0x01	; 1
     bfe:	9f af       	std	Y+63, r25	; 0x3f
     c00:	8e af       	std	Y+62, r24	; 0x3e
     c02:	21 97       	sbiw	r28, 0x01	; 1
     c04:	52 01       	movw	r10, r4
     c06:	43 01       	movw	r8, r6
			obst->all_objects_array[i][ALL_DISTANCE_SONAR] = sqrt( pow(bot->x - obst->all_objects_array[i][ALL_X], 2) + pow(bot->y - obst->all_objects_array[i][ALL_Y], 2) ); // Apply distance formula
     c08:	d2 9c       	mul	r13, r2
     c0a:	80 01       	movw	r16, r0
     c0c:	d3 9c       	mul	r13, r3
     c0e:	10 0d       	add	r17, r0
     c10:	11 24       	eor	r1, r1
     c12:	0a 0d       	add	r16, r10
     c14:	1b 1d       	adc	r17, r11
     c16:	38 01       	movw	r6, r16
     c18:	9f e5       	ldi	r25, 0x5F	; 95
     c1a:	69 0e       	add	r6, r25
     c1c:	71 1c       	adc	r7, r1
     c1e:	d3 01       	movw	r26, r6
     c20:	2d 91       	ld	r18, X+
     c22:	3d 91       	ld	r19, X+
     c24:	4d 91       	ld	r20, X+
     c26:	5c 91       	ld	r21, X
     c28:	f4 01       	movw	r30, r8
     c2a:	60 81       	ld	r22, Z
     c2c:	71 81       	ldd	r23, Z+1	; 0x01
     c2e:	82 81       	ldd	r24, Z+2	; 0x02
     c30:	93 81       	ldd	r25, Z+3	; 0x03
     c32:	0e 94 e4 11 	call	0x23c8	; 0x23c8 <__subsf3>
     c36:	6b ab       	std	Y+51, r22	; 0x33
     c38:	7c ab       	std	Y+52, r23	; 0x34
     c3a:	8d ab       	std	Y+53, r24	; 0x35
     c3c:	9e ab       	std	Y+54, r25	; 0x36
     c3e:	f8 01       	movw	r30, r16
     c40:	ed 59       	subi	r30, 0x9D	; 157
     c42:	ff 4f       	sbci	r31, 0xFF	; 255
     c44:	20 81       	ld	r18, Z
     c46:	31 81       	ldd	r19, Z+1	; 0x01
     c48:	42 81       	ldd	r20, Z+2	; 0x02
     c4a:	53 81       	ldd	r21, Z+3	; 0x03
     c4c:	d4 01       	movw	r26, r8
     c4e:	14 96       	adiw	r26, 0x04	; 4
     c50:	6d 91       	ld	r22, X+
     c52:	7d 91       	ld	r23, X+
     c54:	8d 91       	ld	r24, X+
     c56:	9c 91       	ld	r25, X
     c58:	17 97       	sbiw	r26, 0x07	; 7
     c5a:	0e 94 e4 11 	call	0x23c8	; 0x23c8 <__subsf3>
     c5e:	6f ab       	std	Y+55, r22	; 0x37
     c60:	78 af       	std	Y+56, r23	; 0x38
     c62:	89 af       	std	Y+57, r24	; 0x39
     c64:	9a af       	std	Y+58, r25	; 0x3a
     c66:	2b a9       	ldd	r18, Y+51	; 0x33
     c68:	3c a9       	ldd	r19, Y+52	; 0x34
     c6a:	4d a9       	ldd	r20, Y+53	; 0x35
     c6c:	5e a9       	ldd	r21, Y+54	; 0x36
     c6e:	ca 01       	movw	r24, r20
     c70:	b9 01       	movw	r22, r18
     c72:	0e 94 2c 14 	call	0x2858	; 0x2858 <__mulsf3>
     c76:	6b af       	std	Y+59, r22	; 0x3b
     c78:	7c af       	std	Y+60, r23	; 0x3c
     c7a:	8d af       	std	Y+61, r24	; 0x3d
     c7c:	9e af       	std	Y+62, r25	; 0x3e
     c7e:	2b a9       	ldd	r18, Y+51	; 0x33
     c80:	3c a9       	ldd	r19, Y+52	; 0x34
     c82:	4d a9       	ldd	r20, Y+53	; 0x35
     c84:	5e a9       	ldd	r21, Y+54	; 0x36
     c86:	ca 01       	movw	r24, r20
     c88:	b9 01       	movw	r22, r18
     c8a:	0e 94 2c 14 	call	0x2858	; 0x2858 <__mulsf3>
     c8e:	6b ab       	std	Y+51, r22	; 0x33
     c90:	7c ab       	std	Y+52, r23	; 0x34
     c92:	8d ab       	std	Y+53, r24	; 0x35
     c94:	9e ab       	std	Y+54, r25	; 0x36
     c96:	2f a9       	ldd	r18, Y+55	; 0x37
     c98:	38 ad       	ldd	r19, Y+56	; 0x38
     c9a:	49 ad       	ldd	r20, Y+57	; 0x39
     c9c:	5a ad       	ldd	r21, Y+58	; 0x3a
     c9e:	ca 01       	movw	r24, r20
     ca0:	b9 01       	movw	r22, r18
     ca2:	0e 94 2c 14 	call	0x2858	; 0x2858 <__mulsf3>
     ca6:	9b 01       	movw	r18, r22
     ca8:	ac 01       	movw	r20, r24
     caa:	6b a9       	ldd	r22, Y+51	; 0x33
     cac:	7c a9       	ldd	r23, Y+52	; 0x34
     cae:	8d a9       	ldd	r24, Y+53	; 0x35
     cb0:	9e a9       	ldd	r25, Y+54	; 0x36
     cb2:	0e 94 e5 11 	call	0x23ca	; 0x23ca <__addsf3>
     cb6:	0e 94 e5 14 	call	0x29ca	; 0x29ca <sqrt>
     cba:	f8 01       	movw	r30, r16
     cbc:	ed 5a       	subi	r30, 0xAD	; 173
     cbe:	ff 4f       	sbci	r31, 0xFF	; 255
     cc0:	60 83       	st	Z, r22
     cc2:	71 83       	std	Z+1, r23	; 0x01
     cc4:	82 83       	std	Z+2, r24	; 0x02
     cc6:	93 83       	std	Z+3, r25	; 0x03
			
			if (obst->all_objects_array[i][ALL_X] < 0 || (obst->all_objects_array[i][ALL_X] < 0 && obst->all_objects_array[i][ALL_Y] < 0) ) { // Quadrant II or Quadrant III: Add 180
     cc8:	f3 01       	movw	r30, r6
     cca:	60 81       	ld	r22, Z
     ccc:	71 81       	ldd	r23, Z+1	; 0x01
     cce:	82 81       	ldd	r24, Z+2	; 0x02
     cd0:	93 81       	ldd	r25, Z+3	; 0x03
     cd2:	20 e0       	ldi	r18, 0x00	; 0
     cd4:	30 e0       	ldi	r19, 0x00	; 0
     cd6:	a9 01       	movw	r20, r18
     cd8:	0e 94 71 12 	call	0x24e2	; 0x24e2 <__cmpsf2>
     cdc:	88 23       	and	r24, r24
     cde:	e4 f0       	brlt	.+56     	; 0xd18 <update_information+0x210>
     ce0:	f3 01       	movw	r30, r6
     ce2:	60 81       	ld	r22, Z
     ce4:	71 81       	ldd	r23, Z+1	; 0x01
     ce6:	82 81       	ldd	r24, Z+2	; 0x02
     ce8:	93 81       	ldd	r25, Z+3	; 0x03
     cea:	20 e0       	ldi	r18, 0x00	; 0
     cec:	30 e0       	ldi	r19, 0x00	; 0
     cee:	a9 01       	movw	r20, r18
     cf0:	0e 94 71 12 	call	0x24e2	; 0x24e2 <__cmpsf2>
     cf4:	88 23       	and	r24, r24
     cf6:	0c f0       	brlt	.+2      	; 0xcfa <update_information+0x1f2>
     cf8:	56 c0       	rjmp	.+172    	; 0xda6 <update_information+0x29e>
     cfa:	f8 01       	movw	r30, r16
     cfc:	ed 59       	subi	r30, 0x9D	; 157
     cfe:	ff 4f       	sbci	r31, 0xFF	; 255
     d00:	60 81       	ld	r22, Z
     d02:	71 81       	ldd	r23, Z+1	; 0x01
     d04:	82 81       	ldd	r24, Z+2	; 0x02
     d06:	93 81       	ldd	r25, Z+3	; 0x03
     d08:	20 e0       	ldi	r18, 0x00	; 0
     d0a:	30 e0       	ldi	r19, 0x00	; 0
     d0c:	a9 01       	movw	r20, r18
     d0e:	0e 94 71 12 	call	0x24e2	; 0x24e2 <__cmpsf2>
     d12:	88 23       	and	r24, r24
     d14:	0c f0       	brlt	.+2      	; 0xd18 <update_information+0x210>
     d16:	47 c0       	rjmp	.+142    	; 0xda6 <update_information+0x29e>
				obst->all_objects_array[i][ALL_POSITION] = atan( ((obst->all_objects_array[i][ALL_Y] - bot->y) / (obst->all_objects_array[i][ALL_X] - bot->x))) * (180/3.141516) + 180; // Apply formula (arctan ( y / x )) to find theta
     d18:	d2 9c       	mul	r13, r2
     d1a:	80 01       	movw	r16, r0
     d1c:	d3 9c       	mul	r13, r3
     d1e:	10 0d       	add	r17, r0
     d20:	11 24       	eor	r1, r1
     d22:	0a 0d       	add	r16, r10
     d24:	1b 1d       	adc	r17, r11
     d26:	f8 01       	movw	r30, r16
     d28:	ed 59       	subi	r30, 0x9D	; 157
     d2a:	ff 4f       	sbci	r31, 0xFF	; 255
     d2c:	60 81       	ld	r22, Z
     d2e:	71 81       	ldd	r23, Z+1	; 0x01
     d30:	82 81       	ldd	r24, Z+2	; 0x02
     d32:	93 81       	ldd	r25, Z+3	; 0x03
     d34:	34 97       	sbiw	r30, 0x04	; 4
     d36:	40 80       	ld	r4, Z
     d38:	51 80       	ldd	r5, Z+1	; 0x01
     d3a:	62 80       	ldd	r6, Z+2	; 0x02
     d3c:	73 80       	ldd	r7, Z+3	; 0x03
     d3e:	d4 01       	movw	r26, r8
     d40:	14 96       	adiw	r26, 0x04	; 4
     d42:	2d 91       	ld	r18, X+
     d44:	3d 91       	ld	r19, X+
     d46:	4d 91       	ld	r20, X+
     d48:	5c 91       	ld	r21, X
     d4a:	17 97       	sbiw	r26, 0x07	; 7
     d4c:	0e 94 e4 11 	call	0x23c8	; 0x23c8 <__subsf3>
     d50:	6b ab       	std	Y+51, r22	; 0x33
     d52:	7c ab       	std	Y+52, r23	; 0x34
     d54:	8d ab       	std	Y+53, r24	; 0x35
     d56:	9e ab       	std	Y+54, r25	; 0x36
     d58:	f4 01       	movw	r30, r8
     d5a:	20 81       	ld	r18, Z
     d5c:	31 81       	ldd	r19, Z+1	; 0x01
     d5e:	42 81       	ldd	r20, Z+2	; 0x02
     d60:	53 81       	ldd	r21, Z+3	; 0x03
     d62:	c3 01       	movw	r24, r6
     d64:	b2 01       	movw	r22, r4
     d66:	0e 94 e4 11 	call	0x23c8	; 0x23c8 <__subsf3>
     d6a:	9b 01       	movw	r18, r22
     d6c:	ac 01       	movw	r20, r24
     d6e:	6b a9       	ldd	r22, Y+51	; 0x33
     d70:	7c a9       	ldd	r23, Y+52	; 0x34
     d72:	8d a9       	ldd	r24, Y+53	; 0x35
     d74:	9e a9       	ldd	r25, Y+54	; 0x36
     d76:	0e 94 78 12 	call	0x24f0	; 0x24f0 <__divsf3>
     d7a:	0e 94 49 12 	call	0x2492	; 0x2492 <atan>
     d7e:	2f e4       	ldi	r18, 0x4F	; 79
     d80:	30 e3       	ldi	r19, 0x30	; 48
     d82:	45 e6       	ldi	r20, 0x65	; 101
     d84:	52 e4       	ldi	r21, 0x42	; 66
     d86:	0e 94 2c 14 	call	0x2858	; 0x2858 <__mulsf3>
     d8a:	20 e0       	ldi	r18, 0x00	; 0
     d8c:	30 e0       	ldi	r19, 0x00	; 0
     d8e:	44 e3       	ldi	r20, 0x34	; 52
     d90:	53 e4       	ldi	r21, 0x43	; 67
     d92:	0e 94 e5 11 	call	0x23ca	; 0x23ca <__addsf3>
     d96:	f8 01       	movw	r30, r16
     d98:	e5 5a       	subi	r30, 0xA5	; 165
     d9a:	ff 4f       	sbci	r31, 0xFF	; 255
     d9c:	60 83       	st	Z, r22
     d9e:	71 83       	std	Z+1, r23	; 0x01
     da0:	82 83       	std	Z+2, r24	; 0x02
     da2:	93 83       	std	Z+3, r25	; 0x03
     da4:	b1 c0       	rjmp	.+354    	; 0xf08 <update_information+0x400>
			} else if (obst->all_objects_array[i][ALL_Y] < 0 && obst->all_objects_array[i][ALL_X] > 0) {                                      // Quadrant IV: Add 360
     da6:	d2 9c       	mul	r13, r2
     da8:	f0 01       	movw	r30, r0
     daa:	d3 9c       	mul	r13, r3
     dac:	f0 0d       	add	r31, r0
     dae:	11 24       	eor	r1, r1
     db0:	ea 0d       	add	r30, r10
     db2:	fb 1d       	adc	r31, r11
     db4:	ed 59       	subi	r30, 0x9D	; 157
     db6:	ff 4f       	sbci	r31, 0xFF	; 255
     db8:	60 81       	ld	r22, Z
     dba:	71 81       	ldd	r23, Z+1	; 0x01
     dbc:	82 81       	ldd	r24, Z+2	; 0x02
     dbe:	93 81       	ldd	r25, Z+3	; 0x03
     dc0:	20 e0       	ldi	r18, 0x00	; 0
     dc2:	30 e0       	ldi	r19, 0x00	; 0
     dc4:	a9 01       	movw	r20, r18
     dc6:	0e 94 71 12 	call	0x24e2	; 0x24e2 <__cmpsf2>
     dca:	88 23       	and	r24, r24
     dcc:	0c f0       	brlt	.+2      	; 0xdd0 <update_information+0x2c8>
     dce:	5c c0       	rjmp	.+184    	; 0xe88 <update_information+0x380>
     dd0:	d2 9c       	mul	r13, r2
     dd2:	f0 01       	movw	r30, r0
     dd4:	d3 9c       	mul	r13, r3
     dd6:	f0 0d       	add	r31, r0
     dd8:	11 24       	eor	r1, r1
     dda:	ea 0d       	add	r30, r10
     ddc:	fb 1d       	adc	r31, r11
     dde:	e1 5a       	subi	r30, 0xA1	; 161
     de0:	ff 4f       	sbci	r31, 0xFF	; 255
     de2:	60 81       	ld	r22, Z
     de4:	71 81       	ldd	r23, Z+1	; 0x01
     de6:	82 81       	ldd	r24, Z+2	; 0x02
     de8:	93 81       	ldd	r25, Z+3	; 0x03
     dea:	20 e0       	ldi	r18, 0x00	; 0
     dec:	30 e0       	ldi	r19, 0x00	; 0
     dee:	a9 01       	movw	r20, r18
     df0:	0e 94 21 14 	call	0x2842	; 0x2842 <__gesf2>
     df4:	18 16       	cp	r1, r24
     df6:	0c f0       	brlt	.+2      	; 0xdfa <update_information+0x2f2>
     df8:	47 c0       	rjmp	.+142    	; 0xe88 <update_information+0x380>
				obst->all_objects_array[i][ALL_POSITION] = atan( ((obst->all_objects_array[i][ALL_Y] - bot->y) / (obst->all_objects_array[i][ALL_X] - bot->x))) * (180/3.141516) + 360; // Apply formula (arctan ( y / x )) to find theta
     dfa:	d2 9c       	mul	r13, r2
     dfc:	80 01       	movw	r16, r0
     dfe:	d3 9c       	mul	r13, r3
     e00:	10 0d       	add	r17, r0
     e02:	11 24       	eor	r1, r1
     e04:	0a 0d       	add	r16, r10
     e06:	1b 1d       	adc	r17, r11
     e08:	f8 01       	movw	r30, r16
     e0a:	ed 59       	subi	r30, 0x9D	; 157
     e0c:	ff 4f       	sbci	r31, 0xFF	; 255
     e0e:	60 81       	ld	r22, Z
     e10:	71 81       	ldd	r23, Z+1	; 0x01
     e12:	82 81       	ldd	r24, Z+2	; 0x02
     e14:	93 81       	ldd	r25, Z+3	; 0x03
     e16:	34 97       	sbiw	r30, 0x04	; 4
     e18:	40 80       	ld	r4, Z
     e1a:	51 80       	ldd	r5, Z+1	; 0x01
     e1c:	62 80       	ldd	r6, Z+2	; 0x02
     e1e:	73 80       	ldd	r7, Z+3	; 0x03
     e20:	d4 01       	movw	r26, r8
     e22:	14 96       	adiw	r26, 0x04	; 4
     e24:	2d 91       	ld	r18, X+
     e26:	3d 91       	ld	r19, X+
     e28:	4d 91       	ld	r20, X+
     e2a:	5c 91       	ld	r21, X
     e2c:	17 97       	sbiw	r26, 0x07	; 7
     e2e:	0e 94 e4 11 	call	0x23c8	; 0x23c8 <__subsf3>
     e32:	6b ab       	std	Y+51, r22	; 0x33
     e34:	7c ab       	std	Y+52, r23	; 0x34
     e36:	8d ab       	std	Y+53, r24	; 0x35
     e38:	9e ab       	std	Y+54, r25	; 0x36
     e3a:	f4 01       	movw	r30, r8
     e3c:	20 81       	ld	r18, Z
     e3e:	31 81       	ldd	r19, Z+1	; 0x01
     e40:	42 81       	ldd	r20, Z+2	; 0x02
     e42:	53 81       	ldd	r21, Z+3	; 0x03
     e44:	c3 01       	movw	r24, r6
     e46:	b2 01       	movw	r22, r4
     e48:	0e 94 e4 11 	call	0x23c8	; 0x23c8 <__subsf3>
     e4c:	9b 01       	movw	r18, r22
     e4e:	ac 01       	movw	r20, r24
     e50:	6b a9       	ldd	r22, Y+51	; 0x33
     e52:	7c a9       	ldd	r23, Y+52	; 0x34
     e54:	8d a9       	ldd	r24, Y+53	; 0x35
     e56:	9e a9       	ldd	r25, Y+54	; 0x36
     e58:	0e 94 78 12 	call	0x24f0	; 0x24f0 <__divsf3>
     e5c:	0e 94 49 12 	call	0x2492	; 0x2492 <atan>
     e60:	2f e4       	ldi	r18, 0x4F	; 79
     e62:	30 e3       	ldi	r19, 0x30	; 48
     e64:	45 e6       	ldi	r20, 0x65	; 101
     e66:	52 e4       	ldi	r21, 0x42	; 66
     e68:	0e 94 2c 14 	call	0x2858	; 0x2858 <__mulsf3>
     e6c:	20 e0       	ldi	r18, 0x00	; 0
     e6e:	30 e0       	ldi	r19, 0x00	; 0
     e70:	44 eb       	ldi	r20, 0xB4	; 180
     e72:	53 e4       	ldi	r21, 0x43	; 67
     e74:	0e 94 e5 11 	call	0x23ca	; 0x23ca <__addsf3>
     e78:	f8 01       	movw	r30, r16
     e7a:	e5 5a       	subi	r30, 0xA5	; 165
     e7c:	ff 4f       	sbci	r31, 0xFF	; 255
     e7e:	60 83       	st	Z, r22
     e80:	71 83       	std	Z+1, r23	; 0x01
     e82:	82 83       	std	Z+2, r24	; 0x02
     e84:	93 83       	std	Z+3, r25	; 0x03
     e86:	40 c0       	rjmp	.+128    	; 0xf08 <update_information+0x400>
			} else {                                                                                                                          // Quadrant I: Use calculator 
				obst->all_objects_array[i][ALL_POSITION] = atan( ((obst->all_objects_array[i][ALL_Y] - bot->y) / (obst->all_objects_array[i][ALL_X] - bot->x))) * (180/3.141516);       // Apply formula (arctan ( y / x )) to find theta
     e88:	d2 9c       	mul	r13, r2
     e8a:	80 01       	movw	r16, r0
     e8c:	d3 9c       	mul	r13, r3
     e8e:	10 0d       	add	r17, r0
     e90:	11 24       	eor	r1, r1
     e92:	0a 0d       	add	r16, r10
     e94:	1b 1d       	adc	r17, r11
     e96:	f8 01       	movw	r30, r16
     e98:	ed 59       	subi	r30, 0x9D	; 157
     e9a:	ff 4f       	sbci	r31, 0xFF	; 255
     e9c:	60 81       	ld	r22, Z
     e9e:	71 81       	ldd	r23, Z+1	; 0x01
     ea0:	82 81       	ldd	r24, Z+2	; 0x02
     ea2:	93 81       	ldd	r25, Z+3	; 0x03
     ea4:	34 97       	sbiw	r30, 0x04	; 4
     ea6:	40 80       	ld	r4, Z
     ea8:	51 80       	ldd	r5, Z+1	; 0x01
     eaa:	62 80       	ldd	r6, Z+2	; 0x02
     eac:	73 80       	ldd	r7, Z+3	; 0x03
     eae:	d4 01       	movw	r26, r8
     eb0:	14 96       	adiw	r26, 0x04	; 4
     eb2:	2d 91       	ld	r18, X+
     eb4:	3d 91       	ld	r19, X+
     eb6:	4d 91       	ld	r20, X+
     eb8:	5c 91       	ld	r21, X
     eba:	17 97       	sbiw	r26, 0x07	; 7
     ebc:	0e 94 e4 11 	call	0x23c8	; 0x23c8 <__subsf3>
     ec0:	6b ab       	std	Y+51, r22	; 0x33
     ec2:	7c ab       	std	Y+52, r23	; 0x34
     ec4:	8d ab       	std	Y+53, r24	; 0x35
     ec6:	9e ab       	std	Y+54, r25	; 0x36
     ec8:	f4 01       	movw	r30, r8
     eca:	20 81       	ld	r18, Z
     ecc:	31 81       	ldd	r19, Z+1	; 0x01
     ece:	42 81       	ldd	r20, Z+2	; 0x02
     ed0:	53 81       	ldd	r21, Z+3	; 0x03
     ed2:	c3 01       	movw	r24, r6
     ed4:	b2 01       	movw	r22, r4
     ed6:	0e 94 e4 11 	call	0x23c8	; 0x23c8 <__subsf3>
     eda:	9b 01       	movw	r18, r22
     edc:	ac 01       	movw	r20, r24
     ede:	6b a9       	ldd	r22, Y+51	; 0x33
     ee0:	7c a9       	ldd	r23, Y+52	; 0x34
     ee2:	8d a9       	ldd	r24, Y+53	; 0x35
     ee4:	9e a9       	ldd	r25, Y+54	; 0x36
     ee6:	0e 94 78 12 	call	0x24f0	; 0x24f0 <__divsf3>
     eea:	0e 94 49 12 	call	0x2492	; 0x2492 <atan>
     eee:	2f e4       	ldi	r18, 0x4F	; 79
     ef0:	30 e3       	ldi	r19, 0x30	; 48
     ef2:	45 e6       	ldi	r20, 0x65	; 101
     ef4:	52 e4       	ldi	r21, 0x42	; 66
     ef6:	0e 94 2c 14 	call	0x2858	; 0x2858 <__mulsf3>
     efa:	f8 01       	movw	r30, r16
     efc:	e5 5a       	subi	r30, 0xA5	; 165
     efe:	ff 4f       	sbci	r31, 0xFF	; 255
     f00:	60 83       	st	Z, r22
     f02:	71 83       	std	Z+1, r23	; 0x01
     f04:	82 83       	std	Z+2, r24	; 0x02
     f06:	93 83       	std	Z+3, r25	; 0x03
			}
			
			if (obst->all_objects_array[i][ALL_LINEAR_WIDTH] > SMALL_OBJECT_SIZE_MAX) {
     f08:	d2 9c       	mul	r13, r2
     f0a:	f0 01       	movw	r30, r0
     f0c:	d3 9c       	mul	r13, r3
     f0e:	f0 0d       	add	r31, r0
     f10:	11 24       	eor	r1, r1
     f12:	ea 0d       	add	r30, r10
     f14:	fb 1d       	adc	r31, r11
     f16:	e1 5b       	subi	r30, 0xB1	; 177
     f18:	ff 4f       	sbci	r31, 0xFF	; 255
     f1a:	60 81       	ld	r22, Z
     f1c:	71 81       	ldd	r23, Z+1	; 0x01
     f1e:	82 81       	ldd	r24, Z+2	; 0x02
     f20:	93 81       	ldd	r25, Z+3	; 0x03
     f22:	20 e0       	ldi	r18, 0x00	; 0
     f24:	30 e0       	ldi	r19, 0x00	; 0
     f26:	40 ec       	ldi	r20, 0xC0	; 192
     f28:	50 e4       	ldi	r21, 0x40	; 64
     f2a:	0e 94 21 14 	call	0x2842	; 0x2842 <__gesf2>
     f2e:	18 16       	cp	r1, r24
     f30:	0c f0       	brlt	.+2      	; 0xf34 <update_information+0x42c>
     f32:	4f c0       	rjmp	.+158    	; 0xfd2 <update_information+0x4ca>
				sprintf(buffer, "\r\nObstacle %d Coordinates: (%lf, %lf)\r\n", i, obst->all_objects_array[i][ALL_X], obst->all_objects_array[i][ALL_Y]);
     f34:	d2 9c       	mul	r13, r2
     f36:	80 01       	movw	r16, r0
     f38:	d3 9c       	mul	r13, r3
     f3a:	10 0d       	add	r17, r0
     f3c:	11 24       	eor	r1, r1
     f3e:	0a 0d       	add	r16, r10
     f40:	1b 1d       	adc	r17, r11
     f42:	f8 01       	movw	r30, r16
     f44:	ed 59       	subi	r30, 0x9D	; 157
     f46:	ff 4f       	sbci	r31, 0xFF	; 255
     f48:	40 81       	ld	r20, Z
     f4a:	51 81       	ldd	r21, Z+1	; 0x01
     f4c:	62 81       	ldd	r22, Z+2	; 0x02
     f4e:	73 81       	ldd	r23, Z+3	; 0x03
     f50:	34 97       	sbiw	r30, 0x04	; 4
     f52:	80 81       	ld	r24, Z
     f54:	91 81       	ldd	r25, Z+1	; 0x01
     f56:	a2 81       	ldd	r26, Z+2	; 0x02
     f58:	b3 81       	ldd	r27, Z+3	; 0x03
     f5a:	7f 93       	push	r23
     f5c:	6f 93       	push	r22
     f5e:	5f 93       	push	r21
     f60:	4f 93       	push	r20
     f62:	bf 93       	push	r27
     f64:	af 93       	push	r26
     f66:	9f 93       	push	r25
     f68:	8f 93       	push	r24
     f6a:	3f 92       	push	r3
     f6c:	2f 92       	push	r2
     f6e:	a6 e0       	ldi	r26, 0x06	; 6
     f70:	b1 e0       	ldi	r27, 0x01	; 1
     f72:	bf 93       	push	r27
     f74:	af 93       	push	r26
     f76:	ff 92       	push	r15
     f78:	ef 92       	push	r14
     f7a:	0e 94 6e 1c 	call	0x38dc	; 0x38dc <sprintf>
				send_message(buffer);
     f7e:	c7 01       	movw	r24, r14
     f80:	0e 94 d6 11 	call	0x23ac	; 0x23ac <send_message>
				sprintf(buffer, "\r\nObstacle %d Distance: %lf | Position %lf", i, obst->all_objects_array[i][ALL_DISTANCE_SONAR], obst->all_objects_array[i][ALL_POSITION]);
     f84:	f8 01       	movw	r30, r16
     f86:	e5 5a       	subi	r30, 0xA5	; 165
     f88:	ff 4f       	sbci	r31, 0xFF	; 255
     f8a:	40 81       	ld	r20, Z
     f8c:	51 81       	ldd	r21, Z+1	; 0x01
     f8e:	62 81       	ldd	r22, Z+2	; 0x02
     f90:	73 81       	ldd	r23, Z+3	; 0x03
     f92:	38 97       	sbiw	r30, 0x08	; 8
     f94:	80 81       	ld	r24, Z
     f96:	91 81       	ldd	r25, Z+1	; 0x01
     f98:	a2 81       	ldd	r26, Z+2	; 0x02
     f9a:	b3 81       	ldd	r27, Z+3	; 0x03
     f9c:	7f 93       	push	r23
     f9e:	6f 93       	push	r22
     fa0:	5f 93       	push	r21
     fa2:	4f 93       	push	r20
     fa4:	bf 93       	push	r27
     fa6:	af 93       	push	r26
     fa8:	9f 93       	push	r25
     faa:	8f 93       	push	r24
     fac:	3f 92       	push	r3
     fae:	2f 92       	push	r2
     fb0:	ae e2       	ldi	r26, 0x2E	; 46
     fb2:	b1 e0       	ldi	r27, 0x01	; 1
     fb4:	bf 93       	push	r27
     fb6:	af 93       	push	r26
     fb8:	ff 92       	push	r15
     fba:	ef 92       	push	r14
     fbc:	0e 94 6e 1c 	call	0x38dc	; 0x38dc <sprintf>
				send_message(buffer);
     fc0:	c7 01       	movw	r24, r14
     fc2:	0e 94 d6 11 	call	0x23ac	; 0x23ac <send_message>
     fc6:	0f b6       	in	r0, 0x3f	; 63
     fc8:	f8 94       	cli
     fca:	de bf       	out	0x3e, r29	; 62
     fcc:	0f be       	out	0x3f, r0	; 63
     fce:	cd bf       	out	0x3d, r28	; 61
     fd0:	4e c0       	rjmp	.+156    	; 0x106e <update_information+0x566>
			} else {
				sprintf(buffer, "\r\nGoal Post %d Coordinates: (%lf, %lf)\r\n", i, obst->all_objects_array[i][ALL_X], obst->all_objects_array[i][ALL_Y]);
     fd2:	d2 9c       	mul	r13, r2
     fd4:	80 01       	movw	r16, r0
     fd6:	d3 9c       	mul	r13, r3
     fd8:	10 0d       	add	r17, r0
     fda:	11 24       	eor	r1, r1
     fdc:	0a 0d       	add	r16, r10
     fde:	1b 1d       	adc	r17, r11
     fe0:	f8 01       	movw	r30, r16
     fe2:	ed 59       	subi	r30, 0x9D	; 157
     fe4:	ff 4f       	sbci	r31, 0xFF	; 255
     fe6:	40 81       	ld	r20, Z
     fe8:	51 81       	ldd	r21, Z+1	; 0x01
     fea:	62 81       	ldd	r22, Z+2	; 0x02
     fec:	73 81       	ldd	r23, Z+3	; 0x03
     fee:	34 97       	sbiw	r30, 0x04	; 4
     ff0:	80 81       	ld	r24, Z
     ff2:	91 81       	ldd	r25, Z+1	; 0x01
     ff4:	a2 81       	ldd	r26, Z+2	; 0x02
     ff6:	b3 81       	ldd	r27, Z+3	; 0x03
     ff8:	7f 93       	push	r23
     ffa:	6f 93       	push	r22
     ffc:	5f 93       	push	r21
     ffe:	4f 93       	push	r20
    1000:	bf 93       	push	r27
    1002:	af 93       	push	r26
    1004:	9f 93       	push	r25
    1006:	8f 93       	push	r24
    1008:	3f 92       	push	r3
    100a:	2f 92       	push	r2
    100c:	a9 e5       	ldi	r26, 0x59	; 89
    100e:	b1 e0       	ldi	r27, 0x01	; 1
    1010:	bf 93       	push	r27
    1012:	af 93       	push	r26
    1014:	ff 92       	push	r15
    1016:	ef 92       	push	r14
    1018:	0e 94 6e 1c 	call	0x38dc	; 0x38dc <sprintf>
				send_message(buffer);
    101c:	c7 01       	movw	r24, r14
    101e:	0e 94 d6 11 	call	0x23ac	; 0x23ac <send_message>
				sprintf(buffer, "\r\nGoal Post %d Distance: %lf | Position %lf", i, obst->all_objects_array[i][ALL_DISTANCE_SONAR], obst->all_objects_array[i][ALL_POSITION]);
    1022:	f8 01       	movw	r30, r16
    1024:	e5 5a       	subi	r30, 0xA5	; 165
    1026:	ff 4f       	sbci	r31, 0xFF	; 255
    1028:	40 81       	ld	r20, Z
    102a:	51 81       	ldd	r21, Z+1	; 0x01
    102c:	62 81       	ldd	r22, Z+2	; 0x02
    102e:	73 81       	ldd	r23, Z+3	; 0x03
    1030:	38 97       	sbiw	r30, 0x08	; 8
    1032:	80 81       	ld	r24, Z
    1034:	91 81       	ldd	r25, Z+1	; 0x01
    1036:	a2 81       	ldd	r26, Z+2	; 0x02
    1038:	b3 81       	ldd	r27, Z+3	; 0x03
    103a:	7f 93       	push	r23
    103c:	6f 93       	push	r22
    103e:	5f 93       	push	r21
    1040:	4f 93       	push	r20
    1042:	bf 93       	push	r27
    1044:	af 93       	push	r26
    1046:	9f 93       	push	r25
    1048:	8f 93       	push	r24
    104a:	3f 92       	push	r3
    104c:	2f 92       	push	r2
    104e:	a2 e8       	ldi	r26, 0x82	; 130
    1050:	b1 e0       	ldi	r27, 0x01	; 1
    1052:	bf 93       	push	r27
    1054:	af 93       	push	r26
    1056:	ff 92       	push	r15
    1058:	ef 92       	push	r14
    105a:	0e 94 6e 1c 	call	0x38dc	; 0x38dc <sprintf>
				send_message(buffer);
    105e:	c7 01       	movw	r24, r14
    1060:	0e 94 d6 11 	call	0x23ac	; 0x23ac <send_message>
    1064:	0f b6       	in	r0, 0x3f	; 63
    1066:	f8 94       	cli
    1068:	de bf       	out	0x3e, r29	; 62
    106a:	0f be       	out	0x3f, r0	; 63
    106c:	cd bf       	out	0x3d, r28	; 61
	char buffer[50];
	bot->x = bot->x + bot->dist_traveled * cos(bot->angle * (3.141516/180)); // Update robot x coordinate
	bot->y = bot->y + bot->dist_traveled * sin(bot->angle * (3.141516/180)); // Update robot y coordinate
	
	if (obst->all_object_index > 0) { // Are there objects to keep track of? If so, update the objects distance and angle in respect to the robot
		for (int i = 0; i < obst->all_object_index; i++) { // Loop through total detected objects
    106e:	9f ef       	ldi	r25, 0xFF	; 255
    1070:	29 1a       	sub	r2, r25
    1072:	39 0a       	sbc	r3, r25
    1074:	21 96       	adiw	r28, 0x01	; 1
    1076:	ae ad       	ldd	r26, Y+62	; 0x3e
    1078:	bf ad       	ldd	r27, Y+63	; 0x3f
    107a:	21 97       	sbiw	r28, 0x01	; 1
    107c:	8c 91       	ld	r24, X
    107e:	8f 70       	andi	r24, 0x0F	; 15
    1080:	90 e0       	ldi	r25, 0x00	; 0
    1082:	28 16       	cp	r2, r24
    1084:	39 06       	cpc	r3, r25
    1086:	0c f4       	brge	.+2      	; 0x108a <update_information+0x582>
    1088:	bf cd       	rjmp	.-1154   	; 0xc08 <update_information+0x100>
    108a:	34 01       	movw	r6, r8
				send_message(buffer);
			}
		}
	}
	
	sprintf(buffer, "\r\nBot X: %.3lf\r\nBot Y: %.3lf\r\nBot Angle: %.3lf\r\n", bot->x, bot->y, bot->angle);
    108c:	f3 01       	movw	r30, r6
    108e:	83 85       	ldd	r24, Z+11	; 0x0b
    1090:	8f 93       	push	r24
    1092:	82 85       	ldd	r24, Z+10	; 0x0a
    1094:	8f 93       	push	r24
    1096:	81 85       	ldd	r24, Z+9	; 0x09
    1098:	8f 93       	push	r24
    109a:	80 85       	ldd	r24, Z+8	; 0x08
    109c:	8f 93       	push	r24
    109e:	87 81       	ldd	r24, Z+7	; 0x07
    10a0:	8f 93       	push	r24
    10a2:	86 81       	ldd	r24, Z+6	; 0x06
    10a4:	8f 93       	push	r24
    10a6:	85 81       	ldd	r24, Z+5	; 0x05
    10a8:	8f 93       	push	r24
    10aa:	84 81       	ldd	r24, Z+4	; 0x04
    10ac:	8f 93       	push	r24
    10ae:	83 81       	ldd	r24, Z+3	; 0x03
    10b0:	8f 93       	push	r24
    10b2:	82 81       	ldd	r24, Z+2	; 0x02
    10b4:	8f 93       	push	r24
    10b6:	81 81       	ldd	r24, Z+1	; 0x01
    10b8:	8f 93       	push	r24
    10ba:	80 81       	ld	r24, Z
    10bc:	8f 93       	push	r24
    10be:	8e ea       	ldi	r24, 0xAE	; 174
    10c0:	91 e0       	ldi	r25, 0x01	; 1
    10c2:	9f 93       	push	r25
    10c4:	8f 93       	push	r24
    10c6:	8e 01       	movw	r16, r28
    10c8:	0f 5f       	subi	r16, 0xFF	; 255
    10ca:	1f 4f       	sbci	r17, 0xFF	; 255
    10cc:	1f 93       	push	r17
    10ce:	0f 93       	push	r16
    10d0:	0e 94 6e 1c 	call	0x38dc	; 0x38dc <sprintf>
	send_message(buffer);
    10d4:	c8 01       	movw	r24, r16
    10d6:	0e 94 d6 11 	call	0x23ac	; 0x23ac <send_message>
	
	// Do not reset the angle. Bot needs to know where it was last angled to be accurate.
	bot->dist_traveled = 0; // Reset for next run
    10da:	d3 01       	movw	r26, r6
    10dc:	1c 96       	adiw	r26, 0x0c	; 12
    10de:	1d 92       	st	X+, r1
    10e0:	1d 92       	st	X+, r1
    10e2:	1d 92       	st	X+, r1
    10e4:	1c 92       	st	X, r1
    10e6:	1f 97       	sbiw	r26, 0x0f	; 15
    10e8:	0f b6       	in	r0, 0x3f	; 63
    10ea:	f8 94       	cli
    10ec:	de bf       	out	0x3e, r29	; 62
    10ee:	0f be       	out	0x3f, r0	; 63
    10f0:	cd bf       	out	0x3d, r28	; 61
}
    10f2:	c0 5c       	subi	r28, 0xC0	; 192
    10f4:	df 4f       	sbci	r29, 0xFF	; 255
    10f6:	0f b6       	in	r0, 0x3f	; 63
    10f8:	f8 94       	cli
    10fa:	de bf       	out	0x3e, r29	; 62
    10fc:	0f be       	out	0x3f, r0	; 63
    10fe:	cd bf       	out	0x3d, r28	; 61
    1100:	df 91       	pop	r29
    1102:	cf 91       	pop	r28
    1104:	1f 91       	pop	r17
    1106:	0f 91       	pop	r16
    1108:	ff 90       	pop	r15
    110a:	ef 90       	pop	r14
    110c:	df 90       	pop	r13
    110e:	cf 90       	pop	r12
    1110:	bf 90       	pop	r11
    1112:	af 90       	pop	r10
    1114:	9f 90       	pop	r9
    1116:	8f 90       	pop	r8
    1118:	7f 90       	pop	r7
    111a:	6f 90       	pop	r6
    111c:	5f 90       	pop	r5
    111e:	4f 90       	pop	r4
    1120:	3f 90       	pop	r3
    1122:	2f 90       	pop	r2
    1124:	08 95       	ret

00001126 <reset>:

void reset(obstacle* obst, robot* bot, control* c) {
    1126:	ef 92       	push	r14
    1128:	ff 92       	push	r15
    112a:	0f 93       	push	r16
    112c:	1f 93       	push	r17
    112e:	cf 93       	push	r28
    1130:	df 93       	push	r29
    1132:	ec 01       	movw	r28, r24
    1134:	8b 01       	movw	r16, r22
    1136:	7a 01       	movw	r14, r20
	obst->degrees = 0.0;
    1138:	18 82       	st	Y, r1
    113a:	19 82       	std	Y+1, r1	; 0x01
    113c:	1a 82       	std	Y+2, r1	; 0x02
    113e:	1b 82       	std	Y+3, r1	; 0x03
	move_servo(&obst->degrees);
    1140:	0e 94 69 11 	call	0x22d2	; 0x22d2 <move_servo>
	initializations(obst, bot, c); // reinitialize
    1144:	a7 01       	movw	r20, r14
    1146:	b8 01       	movw	r22, r16
    1148:	ce 01       	movw	r24, r28
    114a:	fa db       	rcall	.-2060   	; 0x940 <initializations>
	/*for (int i = 0; i < 15; i++) { // reset object arrays
		for (int j = 0; j < 7; j++) {
			obst->all_objects_array[i][j] = 0;
		}
	}*/
}
    114c:	df 91       	pop	r29
    114e:	cf 91       	pop	r28
    1150:	1f 91       	pop	r17
    1152:	0f 91       	pop	r16
    1154:	ff 90       	pop	r15
    1156:	ef 90       	pop	r14
    1158:	08 95       	ret

0000115a <find_smallest_obj>:
	}
	obst->last_dist_IR = obst->cur_dist_IR; // Remember the last measured IR distance
	obst->last_dist_SONAR = obst->cur_dist_SONAR; // Remember last measured SONAR distance
}

void find_smallest_obj(obstacle* obst) {
    115a:	8f 92       	push	r8
    115c:	9f 92       	push	r9
    115e:	af 92       	push	r10
    1160:	bf 92       	push	r11
    1162:	df 92       	push	r13
    1164:	ef 92       	push	r14
    1166:	ff 92       	push	r15
    1168:	0f 93       	push	r16
    116a:	1f 93       	push	r17
    116c:	cf 93       	push	r28
    116e:	df 93       	push	r29
    1170:	ec 01       	movw	r28, r24
	for (int i = 0; i < obst->all_object_index; i++)
    1172:	fc 01       	movw	r30, r24
    1174:	ed 56       	subi	r30, 0x6D	; 109
    1176:	fc 4f       	sbci	r31, 0xFC	; 252
    1178:	90 81       	ld	r25, Z
    117a:	9f 70       	andi	r25, 0x0F	; 15
    117c:	09 f4       	brne	.+2      	; 0x1180 <find_smallest_obj+0x26>
    117e:	7c c0       	rjmp	.+248    	; 0x1278 <find_smallest_obj+0x11e>
    1180:	00 e0       	ldi	r16, 0x00	; 0
    1182:	10 e0       	ldi	r17, 0x00	; 0
	if (obst->all_objects_array[i][ALL_LINEAR_WIDTH] < obst->smallest_obj_angular_size) {
    1184:	0f 2e       	mov	r0, r31
    1186:	fc e1       	ldi	r31, 0x1C	; 28
    1188:	df 2e       	mov	r13, r31
    118a:	f0 2d       	mov	r31, r0
	obst->last_dist_IR = obst->cur_dist_IR; // Remember the last measured IR distance
	obst->last_dist_SONAR = obst->cur_dist_SONAR; // Remember last measured SONAR distance
}

void find_smallest_obj(obstacle* obst) {
	for (int i = 0; i < obst->all_object_index; i++)
    118c:	7f 01       	movw	r14, r30
	if (obst->all_objects_array[i][ALL_LINEAR_WIDTH] < obst->smallest_obj_angular_size) {
    118e:	d0 9e       	mul	r13, r16
    1190:	f0 01       	movw	r30, r0
    1192:	d1 9e       	mul	r13, r17
    1194:	f0 0d       	add	r31, r0
    1196:	11 24       	eor	r1, r1
    1198:	ec 0f       	add	r30, r28
    119a:	fd 1f       	adc	r31, r29
    119c:	e1 5b       	subi	r30, 0xB1	; 177
    119e:	ff 4f       	sbci	r31, 0xFF	; 255
    11a0:	80 80       	ld	r8, Z
    11a2:	91 80       	ldd	r9, Z+1	; 0x01
    11a4:	a2 80       	ldd	r10, Z+2	; 0x02
    11a6:	b3 80       	ldd	r11, Z+3	; 0x03
    11a8:	8f 89       	ldd	r24, Y+23	; 0x17
    11aa:	8f 73       	andi	r24, 0x3F	; 63
    11ac:	68 2f       	mov	r22, r24
    11ae:	70 e0       	ldi	r23, 0x00	; 0
    11b0:	80 e0       	ldi	r24, 0x00	; 0
    11b2:	90 e0       	ldi	r25, 0x00	; 0
    11b4:	0e 94 13 13 	call	0x2626	; 0x2626 <__floatsisf>
    11b8:	9b 01       	movw	r18, r22
    11ba:	ac 01       	movw	r20, r24
    11bc:	c5 01       	movw	r24, r10
    11be:	b4 01       	movw	r22, r8
    11c0:	0e 94 71 12 	call	0x24e2	; 0x24e2 <__cmpsf2>
    11c4:	88 23       	and	r24, r24
    11c6:	0c f0       	brlt	.+2      	; 0x11ca <find_smallest_obj+0x70>
    11c8:	4d c0       	rjmp	.+154    	; 0x1264 <find_smallest_obj+0x10a>
		obst->smallest_obj_angular_size = obst->all_objects_array[i][ALL_ANGULAR_WIDTH];
    11ca:	d0 9e       	mul	r13, r16
    11cc:	50 01       	movw	r10, r0
    11ce:	d1 9e       	mul	r13, r17
    11d0:	b0 0c       	add	r11, r0
    11d2:	11 24       	eor	r1, r1
    11d4:	ac 0e       	add	r10, r28
    11d6:	bd 1e       	adc	r11, r29
    11d8:	f5 01       	movw	r30, r10
    11da:	e5 5b       	subi	r30, 0xB5	; 181
    11dc:	ff 4f       	sbci	r31, 0xFF	; 255
    11de:	60 81       	ld	r22, Z
    11e0:	71 81       	ldd	r23, Z+1	; 0x01
    11e2:	82 81       	ldd	r24, Z+2	; 0x02
    11e4:	93 81       	ldd	r25, Z+3	; 0x03
    11e6:	0e 94 e5 12 	call	0x25ca	; 0x25ca <__fixunssfsi>
    11ea:	6f 73       	andi	r22, 0x3F	; 63
    11ec:	8f 89       	ldd	r24, Y+23	; 0x17
    11ee:	80 7c       	andi	r24, 0xC0	; 192
    11f0:	68 2b       	or	r22, r24
    11f2:	6f 8b       	std	Y+23, r22	; 0x17
		obst->smallest_obj_linear_size = obst->all_objects_array[i][ALL_LINEAR_WIDTH];
    11f4:	f5 01       	movw	r30, r10
    11f6:	e1 5b       	subi	r30, 0xB1	; 177
    11f8:	ff 4f       	sbci	r31, 0xFF	; 255
    11fa:	60 81       	ld	r22, Z
    11fc:	71 81       	ldd	r23, Z+1	; 0x01
    11fe:	82 81       	ldd	r24, Z+2	; 0x02
    1200:	93 81       	ldd	r25, Z+3	; 0x03
    1202:	0e 94 e5 12 	call	0x25ca	; 0x25ca <__fixunssfsi>
    1206:	96 2f       	mov	r25, r22
    1208:	92 95       	swap	r25
    120a:	99 0f       	add	r25, r25
    120c:	99 0f       	add	r25, r25
    120e:	90 7c       	andi	r25, 0xC0	; 192
    1210:	8f 89       	ldd	r24, Y+23	; 0x17
    1212:	8f 73       	andi	r24, 0x3F	; 63
    1214:	89 2b       	or	r24, r25
    1216:	8f 8b       	std	Y+23, r24	; 0x17
    1218:	66 95       	lsr	r22
    121a:	66 95       	lsr	r22
    121c:	67 70       	andi	r22, 0x07	; 7
    121e:	88 8d       	ldd	r24, Y+24	; 0x18
    1220:	88 7f       	andi	r24, 0xF8	; 248
    1222:	68 2b       	or	r22, r24
    1224:	68 8f       	std	Y+24, r22	; 0x18
		obst->smallest_obj_dist_SONAR = obst->all_objects_array[i][ALL_DISTANCE_SONAR];
    1226:	f5 01       	movw	r30, r10
    1228:	ed 5a       	subi	r30, 0xAD	; 173
    122a:	ff 4f       	sbci	r31, 0xFF	; 255
    122c:	60 81       	ld	r22, Z
    122e:	71 81       	ldd	r23, Z+1	; 0x01
    1230:	82 81       	ldd	r24, Z+2	; 0x02
    1232:	93 81       	ldd	r25, Z+3	; 0x03
    1234:	0e 94 e5 12 	call	0x25ca	; 0x25ca <__fixunssfsi>
    1238:	69 8f       	std	Y+25, r22	; 0x19
		obst->smallest_obj_dist_IR = obst->all_objects_array[i][ALL_DISTANCE_IR];
    123a:	f5 01       	movw	r30, r10
    123c:	e9 5a       	subi	r30, 0xA9	; 169
    123e:	ff 4f       	sbci	r31, 0xFF	; 255
    1240:	60 81       	ld	r22, Z
    1242:	71 81       	ldd	r23, Z+1	; 0x01
    1244:	82 81       	ldd	r24, Z+2	; 0x02
    1246:	93 81       	ldd	r25, Z+3	; 0x03
    1248:	0e 94 e5 12 	call	0x25ca	; 0x25ca <__fixunssfsi>
    124c:	6a 8f       	std	Y+26, r22	; 0x1a
		obst->smallest_obj_position = obst->all_objects_array[i][ALL_POSITION];
    124e:	f5 01       	movw	r30, r10
    1250:	e5 5a       	subi	r30, 0xA5	; 165
    1252:	ff 4f       	sbci	r31, 0xFF	; 255
    1254:	80 81       	ld	r24, Z
    1256:	91 81       	ldd	r25, Z+1	; 0x01
    1258:	a2 81       	ldd	r26, Z+2	; 0x02
    125a:	b3 81       	ldd	r27, Z+3	; 0x03
    125c:	8b 8f       	std	Y+27, r24	; 0x1b
    125e:	9c 8f       	std	Y+28, r25	; 0x1c
    1260:	ad 8f       	std	Y+29, r26	; 0x1d
    1262:	be 8f       	std	Y+30, r27	; 0x1e
	obst->last_dist_IR = obst->cur_dist_IR; // Remember the last measured IR distance
	obst->last_dist_SONAR = obst->cur_dist_SONAR; // Remember last measured SONAR distance
}

void find_smallest_obj(obstacle* obst) {
	for (int i = 0; i < obst->all_object_index; i++)
    1264:	0f 5f       	subi	r16, 0xFF	; 255
    1266:	1f 4f       	sbci	r17, 0xFF	; 255
    1268:	f7 01       	movw	r30, r14
    126a:	80 81       	ld	r24, Z
    126c:	8f 70       	andi	r24, 0x0F	; 15
    126e:	90 e0       	ldi	r25, 0x00	; 0
    1270:	08 17       	cp	r16, r24
    1272:	19 07       	cpc	r17, r25
    1274:	0c f4       	brge	.+2      	; 0x1278 <find_smallest_obj+0x11e>
    1276:	8b cf       	rjmp	.-234    	; 0x118e <find_smallest_obj+0x34>
		obst->smallest_obj_linear_size = obst->all_objects_array[i][ALL_LINEAR_WIDTH];
		obst->smallest_obj_dist_SONAR = obst->all_objects_array[i][ALL_DISTANCE_SONAR];
		obst->smallest_obj_dist_IR = obst->all_objects_array[i][ALL_DISTANCE_IR];
		obst->smallest_obj_position = obst->all_objects_array[i][ALL_POSITION];
	}
}
    1278:	df 91       	pop	r29
    127a:	cf 91       	pop	r28
    127c:	1f 91       	pop	r17
    127e:	0f 91       	pop	r16
    1280:	ff 90       	pop	r15
    1282:	ef 90       	pop	r14
    1284:	df 90       	pop	r13
    1286:	bf 90       	pop	r11
    1288:	af 90       	pop	r10
    128a:	9f 90       	pop	r9
    128c:	8f 90       	pop	r8
    128e:	08 95       	ret

00001290 <find_closest_obj>:

void find_closest_obj(obstacle* obst) {
    1290:	4f 92       	push	r4
    1292:	5f 92       	push	r5
    1294:	6f 92       	push	r6
    1296:	7f 92       	push	r7
    1298:	bf 92       	push	r11
    129a:	cf 92       	push	r12
    129c:	df 92       	push	r13
    129e:	ef 92       	push	r14
    12a0:	ff 92       	push	r15
    12a2:	0f 93       	push	r16
    12a4:	1f 93       	push	r17
    12a6:	cf 93       	push	r28
    12a8:	df 93       	push	r29
    12aa:	ec 01       	movw	r28, r24
	for (int i = 0; i < obst->all_object_index; i++)
    12ac:	fc 01       	movw	r30, r24
    12ae:	ed 56       	subi	r30, 0x6D	; 109
    12b0:	fc 4f       	sbci	r31, 0xFC	; 252
    12b2:	90 81       	ld	r25, Z
    12b4:	9f 70       	andi	r25, 0x0F	; 15
    12b6:	09 f4       	brne	.+2      	; 0x12ba <find_closest_obj+0x2a>
    12b8:	9c c0       	rjmp	.+312    	; 0x13f2 <find_closest_obj+0x162>
    12ba:	e1 2c       	mov	r14, r1
    12bc:	f1 2c       	mov	r15, r1
	if (obst->all_objects_array[i][ALL_DISTANCE_SONAR] < obst->closest_obj_dist_SONAR || obst->all_objects_array[i][ALL_DISTANCE_IR] < obst->closest_obj_dist_IR) {
    12be:	0f 2e       	mov	r0, r31
    12c0:	fc e1       	ldi	r31, 0x1C	; 28
    12c2:	bf 2e       	mov	r11, r31
    12c4:	f0 2d       	mov	r31, r0
		obst->smallest_obj_position = obst->all_objects_array[i][ALL_POSITION];
	}
}

void find_closest_obj(obstacle* obst) {
	for (int i = 0; i < obst->all_object_index; i++)
    12c6:	6f 01       	movw	r12, r30
	if (obst->all_objects_array[i][ALL_DISTANCE_SONAR] < obst->closest_obj_dist_SONAR || obst->all_objects_array[i][ALL_DISTANCE_IR] < obst->closest_obj_dist_IR) {
    12c8:	be 9c       	mul	r11, r14
    12ca:	f0 01       	movw	r30, r0
    12cc:	bf 9c       	mul	r11, r15
    12ce:	f0 0d       	add	r31, r0
    12d0:	11 24       	eor	r1, r1
    12d2:	ec 0f       	add	r30, r28
    12d4:	fd 1f       	adc	r31, r29
    12d6:	ed 5a       	subi	r30, 0xAD	; 173
    12d8:	ff 4f       	sbci	r31, 0xFF	; 255
    12da:	40 80       	ld	r4, Z
    12dc:	51 80       	ldd	r5, Z+1	; 0x01
    12de:	62 80       	ldd	r6, Z+2	; 0x02
    12e0:	73 80       	ldd	r7, Z+3	; 0x03
    12e2:	89 a1       	ldd	r24, Y+33	; 0x21
    12e4:	9a a1       	ldd	r25, Y+34	; 0x22
    12e6:	bc 01       	movw	r22, r24
    12e8:	99 0f       	add	r25, r25
    12ea:	88 0b       	sbc	r24, r24
    12ec:	99 0b       	sbc	r25, r25
    12ee:	0e 94 13 13 	call	0x2626	; 0x2626 <__floatsisf>
    12f2:	9b 01       	movw	r18, r22
    12f4:	ac 01       	movw	r20, r24
    12f6:	c3 01       	movw	r24, r6
    12f8:	b2 01       	movw	r22, r4
    12fa:	0e 94 71 12 	call	0x24e2	; 0x24e2 <__cmpsf2>
    12fe:	88 23       	and	r24, r24
    1300:	f4 f0       	brlt	.+60     	; 0x133e <find_closest_obj+0xae>
    1302:	be 9c       	mul	r11, r14
    1304:	f0 01       	movw	r30, r0
    1306:	bf 9c       	mul	r11, r15
    1308:	f0 0d       	add	r31, r0
    130a:	11 24       	eor	r1, r1
    130c:	ec 0f       	add	r30, r28
    130e:	fd 1f       	adc	r31, r29
    1310:	e9 5a       	subi	r30, 0xA9	; 169
    1312:	ff 4f       	sbci	r31, 0xFF	; 255
    1314:	40 80       	ld	r4, Z
    1316:	51 80       	ldd	r5, Z+1	; 0x01
    1318:	62 80       	ldd	r6, Z+2	; 0x02
    131a:	73 80       	ldd	r7, Z+3	; 0x03
    131c:	8b a1       	ldd	r24, Y+35	; 0x23
    131e:	9c a1       	ldd	r25, Y+36	; 0x24
    1320:	bc 01       	movw	r22, r24
    1322:	99 0f       	add	r25, r25
    1324:	88 0b       	sbc	r24, r24
    1326:	99 0b       	sbc	r25, r25
    1328:	0e 94 13 13 	call	0x2626	; 0x2626 <__floatsisf>
    132c:	9b 01       	movw	r18, r22
    132e:	ac 01       	movw	r20, r24
    1330:	c3 01       	movw	r24, r6
    1332:	b2 01       	movw	r22, r4
    1334:	0e 94 71 12 	call	0x24e2	; 0x24e2 <__cmpsf2>
    1338:	88 23       	and	r24, r24
    133a:	0c f0       	brlt	.+2      	; 0x133e <find_closest_obj+0xae>
    133c:	4f c0       	rjmp	.+158    	; 0x13dc <find_closest_obj+0x14c>
		obst->closest_obj_angular_size = obst->all_objects_array[i][ALL_ANGULAR_WIDTH];
    133e:	be 9c       	mul	r11, r14
    1340:	80 01       	movw	r16, r0
    1342:	bf 9c       	mul	r11, r15
    1344:	10 0d       	add	r17, r0
    1346:	11 24       	eor	r1, r1
    1348:	0c 0f       	add	r16, r28
    134a:	1d 1f       	adc	r17, r29
    134c:	f8 01       	movw	r30, r16
    134e:	e5 5b       	subi	r30, 0xB5	; 181
    1350:	ff 4f       	sbci	r31, 0xFF	; 255
    1352:	60 81       	ld	r22, Z
    1354:	71 81       	ldd	r23, Z+1	; 0x01
    1356:	82 81       	ldd	r24, Z+2	; 0x02
    1358:	93 81       	ldd	r25, Z+3	; 0x03
    135a:	0e 94 e5 12 	call	0x25ca	; 0x25ca <__fixunssfsi>
    135e:	6f 73       	andi	r22, 0x3F	; 63
    1360:	8f 8d       	ldd	r24, Y+31	; 0x1f
    1362:	80 7c       	andi	r24, 0xC0	; 192
    1364:	68 2b       	or	r22, r24
    1366:	6f 8f       	std	Y+31, r22	; 0x1f
		obst->closest_obj_linear_size = obst->all_objects_array[i][ALL_LINEAR_WIDTH];
    1368:	f8 01       	movw	r30, r16
    136a:	e1 5b       	subi	r30, 0xB1	; 177
    136c:	ff 4f       	sbci	r31, 0xFF	; 255
    136e:	60 81       	ld	r22, Z
    1370:	71 81       	ldd	r23, Z+1	; 0x01
    1372:	82 81       	ldd	r24, Z+2	; 0x02
    1374:	93 81       	ldd	r25, Z+3	; 0x03
    1376:	0e 94 e5 12 	call	0x25ca	; 0x25ca <__fixunssfsi>
    137a:	96 2f       	mov	r25, r22
    137c:	92 95       	swap	r25
    137e:	99 0f       	add	r25, r25
    1380:	99 0f       	add	r25, r25
    1382:	90 7c       	andi	r25, 0xC0	; 192
    1384:	8f 8d       	ldd	r24, Y+31	; 0x1f
    1386:	8f 73       	andi	r24, 0x3F	; 63
    1388:	89 2b       	or	r24, r25
    138a:	8f 8f       	std	Y+31, r24	; 0x1f
    138c:	66 95       	lsr	r22
    138e:	66 95       	lsr	r22
    1390:	67 70       	andi	r22, 0x07	; 7
    1392:	88 a1       	ldd	r24, Y+32	; 0x20
    1394:	88 7f       	andi	r24, 0xF8	; 248
    1396:	68 2b       	or	r22, r24
    1398:	68 a3       	std	Y+32, r22	; 0x20
		obst->closest_obj_dist_SONAR = obst->all_objects_array[i][ALL_DISTANCE_SONAR];
    139a:	f8 01       	movw	r30, r16
    139c:	ed 5a       	subi	r30, 0xAD	; 173
    139e:	ff 4f       	sbci	r31, 0xFF	; 255
    13a0:	60 81       	ld	r22, Z
    13a2:	71 81       	ldd	r23, Z+1	; 0x01
    13a4:	82 81       	ldd	r24, Z+2	; 0x02
    13a6:	93 81       	ldd	r25, Z+3	; 0x03
    13a8:	0e 94 e0 12 	call	0x25c0	; 0x25c0 <__fixsfsi>
    13ac:	7a a3       	std	Y+34, r23	; 0x22
    13ae:	69 a3       	std	Y+33, r22	; 0x21
		obst->closest_obj_dist_IR = obst->all_objects_array[i][ALL_DISTANCE_IR];
    13b0:	f8 01       	movw	r30, r16
    13b2:	e9 5a       	subi	r30, 0xA9	; 169
    13b4:	ff 4f       	sbci	r31, 0xFF	; 255
    13b6:	60 81       	ld	r22, Z
    13b8:	71 81       	ldd	r23, Z+1	; 0x01
    13ba:	82 81       	ldd	r24, Z+2	; 0x02
    13bc:	93 81       	ldd	r25, Z+3	; 0x03
    13be:	0e 94 e0 12 	call	0x25c0	; 0x25c0 <__fixsfsi>
    13c2:	7c a3       	std	Y+36, r23	; 0x24
    13c4:	6b a3       	std	Y+35, r22	; 0x23
		obst->closest_obj_position = obst->all_objects_array[i][ALL_POSITION];
    13c6:	f8 01       	movw	r30, r16
    13c8:	e5 5a       	subi	r30, 0xA5	; 165
    13ca:	ff 4f       	sbci	r31, 0xFF	; 255
    13cc:	80 81       	ld	r24, Z
    13ce:	91 81       	ldd	r25, Z+1	; 0x01
    13d0:	a2 81       	ldd	r26, Z+2	; 0x02
    13d2:	b3 81       	ldd	r27, Z+3	; 0x03
    13d4:	8d a3       	std	Y+37, r24	; 0x25
    13d6:	9e a3       	std	Y+38, r25	; 0x26
    13d8:	af a3       	std	Y+39, r26	; 0x27
    13da:	b8 a7       	std	Y+40, r27	; 0x28
		obst->smallest_obj_position = obst->all_objects_array[i][ALL_POSITION];
	}
}

void find_closest_obj(obstacle* obst) {
	for (int i = 0; i < obst->all_object_index; i++)
    13dc:	ef ef       	ldi	r30, 0xFF	; 255
    13de:	ee 1a       	sub	r14, r30
    13e0:	fe 0a       	sbc	r15, r30
    13e2:	f6 01       	movw	r30, r12
    13e4:	80 81       	ld	r24, Z
    13e6:	8f 70       	andi	r24, 0x0F	; 15
    13e8:	90 e0       	ldi	r25, 0x00	; 0
    13ea:	e8 16       	cp	r14, r24
    13ec:	f9 06       	cpc	r15, r25
    13ee:	0c f4       	brge	.+2      	; 0x13f2 <find_closest_obj+0x162>
    13f0:	6b cf       	rjmp	.-298    	; 0x12c8 <find_closest_obj+0x38>
		obst->closest_obj_linear_size = obst->all_objects_array[i][ALL_LINEAR_WIDTH];
		obst->closest_obj_dist_SONAR = obst->all_objects_array[i][ALL_DISTANCE_SONAR];
		obst->closest_obj_dist_IR = obst->all_objects_array[i][ALL_DISTANCE_IR];
		obst->closest_obj_position = obst->all_objects_array[i][ALL_POSITION];
	}
}
    13f2:	df 91       	pop	r29
    13f4:	cf 91       	pop	r28
    13f6:	1f 91       	pop	r17
    13f8:	0f 91       	pop	r16
    13fa:	ff 90       	pop	r15
    13fc:	ef 90       	pop	r14
    13fe:	df 90       	pop	r13
    1400:	cf 90       	pop	r12
    1402:	bf 90       	pop	r11
    1404:	7f 90       	pop	r7
    1406:	6f 90       	pop	r6
    1408:	5f 90       	pop	r5
    140a:	4f 90       	pop	r4
    140c:	08 95       	ret

0000140e <print_and_process_stats>:

void print_and_process_stats(obstacle* obst) {
    140e:	9f 92       	push	r9
    1410:	af 92       	push	r10
    1412:	bf 92       	push	r11
    1414:	cf 92       	push	r12
    1416:	df 92       	push	r13
    1418:	ef 92       	push	r14
    141a:	ff 92       	push	r15
    141c:	0f 93       	push	r16
    141e:	1f 93       	push	r17
    1420:	cf 93       	push	r28
    1422:	df 93       	push	r29
    1424:	cd b7       	in	r28, 0x3d	; 61
    1426:	de b7       	in	r29, 0x3e	; 62
    1428:	c4 5f       	subi	r28, 0xF4	; 244
    142a:	d1 40       	sbci	r29, 0x01	; 1
    142c:	0f b6       	in	r0, 0x3f	; 63
    142e:	f8 94       	cli
    1430:	de bf       	out	0x3e, r29	; 62
    1432:	0f be       	out	0x3f, r0	; 63
    1434:	cd bf       	out	0x3d, r28	; 61
    1436:	fc 01       	movw	r30, r24
	if (obst->all_object_index > 0) {
    1438:	dc 01       	movw	r26, r24
    143a:	ad 56       	subi	r26, 0x6D	; 109
    143c:	bc 4f       	sbci	r27, 0xFC	; 252
    143e:	8c 91       	ld	r24, X
    1440:	8f 70       	andi	r24, 0x0F	; 15
    1442:	09 f4       	brne	.+2      	; 0x1446 <print_and_process_stats+0x38>
    1444:	5a c0       	rjmp	.+180    	; 0x14fa <print_and_process_stats+0xec>
		char buffer[500];
	
		/* Prepare buffer for transmission */
		sprintf(buffer, "\r\n\nObjects found: %d\r\n\nClosest Object Statistics:\r\nObject position: %.1f degrees\r\nSONAR distance (cm): %d\r\nIR distance (cm): %d\r\nAngular width: %d\r\nLinear width (cm): %d\r\n\nSmallest Object Statistics:\r\nObject position: %.1lf degrees\r\nSONAR distance (cm): %d\r\nIR distance (cm): %d\r\nAngular width: %d\r\nLinear width (cm): %d\r\n", obst->all_object_index, obst->closest_obj_position, obst->closest_obj_dist_SONAR, obst->closest_obj_dist_IR, obst->closest_obj_angular_size, obst->closest_obj_linear_size, obst->smallest_obj_position, obst->smallest_obj_dist_SONAR, obst->smallest_obj_dist_IR, obst->smallest_obj_angular_size, obst->smallest_obj_linear_size);
    1446:	27 89       	ldd	r18, Z+23	; 0x17
    1448:	82 2f       	mov	r24, r18
    144a:	82 95       	swap	r24
    144c:	86 95       	lsr	r24
    144e:	86 95       	lsr	r24
    1450:	83 70       	andi	r24, 0x03	; 3
    1452:	20 8d       	ldd	r18, Z+24	; 0x18
    1454:	27 70       	andi	r18, 0x07	; 7
    1456:	22 0f       	add	r18, r18
    1458:	22 0f       	add	r18, r18
    145a:	28 2b       	or	r18, r24
    145c:	37 89       	ldd	r19, Z+23	; 0x17
    145e:	3f 73       	andi	r19, 0x3F	; 63
    1460:	a2 8c       	ldd	r10, Z+26	; 0x1a
    1462:	b1 8c       	ldd	r11, Z+25	; 0x19
    1464:	c3 8c       	ldd	r12, Z+27	; 0x1b
    1466:	d4 8c       	ldd	r13, Z+28	; 0x1c
    1468:	e5 8c       	ldd	r14, Z+29	; 0x1d
    146a:	f6 8c       	ldd	r15, Z+30	; 0x1e
    146c:	97 8d       	ldd	r25, Z+31	; 0x1f
    146e:	89 2f       	mov	r24, r25
    1470:	82 95       	swap	r24
    1472:	86 95       	lsr	r24
    1474:	86 95       	lsr	r24
    1476:	83 70       	andi	r24, 0x03	; 3
    1478:	90 a1       	ldd	r25, Z+32	; 0x20
    147a:	97 70       	andi	r25, 0x07	; 7
    147c:	99 0f       	add	r25, r25
    147e:	99 0f       	add	r25, r25
    1480:	98 2b       	or	r25, r24
    1482:	87 8d       	ldd	r24, Z+31	; 0x1f
    1484:	8f 73       	andi	r24, 0x3F	; 63
    1486:	98 2e       	mov	r9, r24
    1488:	03 a1       	ldd	r16, Z+35	; 0x23
    148a:	14 a1       	ldd	r17, Z+36	; 0x24
    148c:	a1 a1       	ldd	r26, Z+33	; 0x21
    148e:	b2 a1       	ldd	r27, Z+34	; 0x22
    1490:	45 a1       	ldd	r20, Z+37	; 0x25
    1492:	56 a1       	ldd	r21, Z+38	; 0x26
    1494:	67 a1       	ldd	r22, Z+39	; 0x27
    1496:	70 a5       	ldd	r23, Z+40	; 0x28
    1498:	ed 56       	subi	r30, 0x6D	; 109
    149a:	fc 4f       	sbci	r31, 0xFC	; 252
    149c:	80 81       	ld	r24, Z
    149e:	8f 70       	andi	r24, 0x0F	; 15
    14a0:	1f 92       	push	r1
    14a2:	2f 93       	push	r18
    14a4:	1f 92       	push	r1
    14a6:	3f 93       	push	r19
    14a8:	1f 92       	push	r1
    14aa:	af 92       	push	r10
    14ac:	1f 92       	push	r1
    14ae:	bf 92       	push	r11
    14b0:	ff 92       	push	r15
    14b2:	ef 92       	push	r14
    14b4:	df 92       	push	r13
    14b6:	cf 92       	push	r12
    14b8:	1f 92       	push	r1
    14ba:	9f 93       	push	r25
    14bc:	1f 92       	push	r1
    14be:	9f 92       	push	r9
    14c0:	1f 93       	push	r17
    14c2:	0f 93       	push	r16
    14c4:	bf 93       	push	r27
    14c6:	af 93       	push	r26
    14c8:	7f 93       	push	r23
    14ca:	6f 93       	push	r22
    14cc:	5f 93       	push	r21
    14ce:	4f 93       	push	r20
    14d0:	1f 92       	push	r1
    14d2:	8f 93       	push	r24
    14d4:	8f ed       	ldi	r24, 0xDF	; 223
    14d6:	91 e0       	ldi	r25, 0x01	; 1
    14d8:	9f 93       	push	r25
    14da:	8f 93       	push	r24
    14dc:	8e 01       	movw	r16, r28
    14de:	0f 5f       	subi	r16, 0xFF	; 255
    14e0:	1f 4f       	sbci	r17, 0xFF	; 255
    14e2:	1f 93       	push	r17
    14e4:	0f 93       	push	r16
    14e6:	0e 94 6e 1c 	call	0x38dc	; 0x38dc <sprintf>
		send_message(buffer);
    14ea:	c8 01       	movw	r24, r16
    14ec:	5f d7       	rcall	.+3774   	; 0x23ac <send_message>
    14ee:	0f b6       	in	r0, 0x3f	; 63
    14f0:	f8 94       	cli
    14f2:	de bf       	out	0x3e, r29	; 62
    14f4:	0f be       	out	0x3f, r0	; 63
    14f6:	cd bf       	out	0x3d, r28	; 61
    14f8:	03 c0       	rjmp	.+6      	; 0x1500 <print_and_process_stats+0xf2>
	} else {
		send_message("\r\nNo objects found\r\n");
    14fa:	82 e2       	ldi	r24, 0x22	; 34
    14fc:	93 e0       	ldi	r25, 0x03	; 3
    14fe:	56 d7       	rcall	.+3756   	; 0x23ac <send_message>
	}
}
    1500:	cc 50       	subi	r28, 0x0C	; 12
    1502:	de 4f       	sbci	r29, 0xFE	; 254
    1504:	0f b6       	in	r0, 0x3f	; 63
    1506:	f8 94       	cli
    1508:	de bf       	out	0x3e, r29	; 62
    150a:	0f be       	out	0x3f, r0	; 63
    150c:	cd bf       	out	0x3d, r28	; 61
    150e:	df 91       	pop	r29
    1510:	cf 91       	pop	r28
    1512:	1f 91       	pop	r17
    1514:	0f 91       	pop	r16
    1516:	ff 90       	pop	r15
    1518:	ef 90       	pop	r14
    151a:	df 90       	pop	r13
    151c:	cf 90       	pop	r12
    151e:	bf 90       	pop	r11
    1520:	af 90       	pop	r10
    1522:	9f 90       	pop	r9
    1524:	08 95       	ret

00001526 <find_dupilicate>:

char find_dupilicate(obstacle* obst, robot* bot) {
    1526:	2f 92       	push	r2
    1528:	3f 92       	push	r3
    152a:	4f 92       	push	r4
    152c:	5f 92       	push	r5
    152e:	6f 92       	push	r6
    1530:	7f 92       	push	r7
    1532:	8f 92       	push	r8
    1534:	9f 92       	push	r9
    1536:	af 92       	push	r10
    1538:	bf 92       	push	r11
    153a:	cf 92       	push	r12
    153c:	df 92       	push	r13
    153e:	ef 92       	push	r14
    1540:	ff 92       	push	r15
    1542:	0f 93       	push	r16
    1544:	1f 93       	push	r17
    1546:	cf 93       	push	r28
    1548:	df 93       	push	r29
    154a:	00 d0       	rcall	.+0      	; 0x154c <find_dupilicate+0x26>
    154c:	1f 92       	push	r1
    154e:	cd b7       	in	r28, 0x3d	; 61
    1550:	de b7       	in	r29, 0x3e	; 62
    1552:	9c 01       	movw	r18, r24
	char validation = 0;
	
	for (int i = 0; i < obst->all_object_index; i++) {
    1554:	fc 01       	movw	r30, r24
    1556:	ed 56       	subi	r30, 0x6D	; 109
    1558:	fc 4f       	sbci	r31, 0xFC	; 252
    155a:	90 81       	ld	r25, Z
    155c:	9f 70       	andi	r25, 0x0F	; 15
    155e:	09 f4       	brne	.+2      	; 0x1562 <find_dupilicate+0x3c>
    1560:	16 c1       	rjmp	.+556    	; 0x178e <find_dupilicate+0x268>
    1562:	3b 83       	std	Y+3, r19	; 0x03
    1564:	2a 83       	std	Y+2, r18	; 0x02
    1566:	00 e0       	ldi	r16, 0x00	; 0
    1568:	10 e0       	ldi	r17, 0x00	; 0
		int sonardistance = (obst->start_dist_SONAR + obst->end_dist_SONAR) / 2;
		int width = get_linear_width(obst);
		int poisition = (obst->start_angle_IR + (obst->all_objects_array[obst->all_object_index][ALL_ANGULAR_WIDTH] / 2));
    156a:	6f 01       	movw	r12, r30
    156c:	0f 2e       	mov	r0, r31
    156e:	fc e1       	ldi	r31, 0x1C	; 28
    1570:	ff 2e       	mov	r15, r31
    1572:	f0 2d       	mov	r31, r0

char find_dupilicate(obstacle* obst, robot* bot) {
	char validation = 0;
	
	for (int i = 0; i < obst->all_object_index; i++) {
		int sonardistance = (obst->start_dist_SONAR + obst->end_dist_SONAR) / 2;
    1574:	ea 81       	ldd	r30, Y+2	; 0x02
    1576:	fb 81       	ldd	r31, Y+3	; 0x03
    1578:	f5 89       	ldd	r31, Z+21	; 0x15
    157a:	f9 83       	std	Y+1, r31	; 0x01
    157c:	ea 81       	ldd	r30, Y+2	; 0x02
    157e:	fb 81       	ldd	r31, Y+3	; 0x03
    1580:	e6 88       	ldd	r14, Z+22	; 0x16
		int width = get_linear_width(obst);
    1582:	cf 01       	movw	r24, r30
    1584:	75 da       	rcall	.-2838   	; 0xa70 <get_linear_width>
    1586:	28 2e       	mov	r2, r24
    1588:	31 2c       	mov	r3, r1
		int poisition = (obst->start_angle_IR + (obst->all_objects_array[obst->all_object_index][ALL_ANGULAR_WIDTH] / 2));
    158a:	ea 81       	ldd	r30, Y+2	; 0x02
    158c:	fb 81       	ldd	r31, Y+3	; 0x03
    158e:	62 85       	ldd	r22, Z+10	; 0x0a
    1590:	f6 01       	movw	r30, r12
    1592:	80 81       	ld	r24, Z
    1594:	8f 70       	andi	r24, 0x0F	; 15
    1596:	ea 81       	ldd	r30, Y+2	; 0x02
    1598:	fb 81       	ldd	r31, Y+3	; 0x03
    159a:	f8 9e       	mul	r15, r24
    159c:	e0 0d       	add	r30, r0
    159e:	f1 1d       	adc	r31, r1
    15a0:	11 24       	eor	r1, r1
    15a2:	e5 5b       	subi	r30, 0xB5	; 181
    15a4:	ff 4f       	sbci	r31, 0xFF	; 255
    15a6:	40 80       	ld	r4, Z
    15a8:	51 80       	ldd	r5, Z+1	; 0x01
    15aa:	62 80       	ldd	r6, Z+2	; 0x02
    15ac:	73 80       	ldd	r7, Z+3	; 0x03
    15ae:	70 e0       	ldi	r23, 0x00	; 0
    15b0:	80 e0       	ldi	r24, 0x00	; 0
    15b2:	90 e0       	ldi	r25, 0x00	; 0
    15b4:	0e 94 13 13 	call	0x2626	; 0x2626 <__floatsisf>
    15b8:	4b 01       	movw	r8, r22
    15ba:	5c 01       	movw	r10, r24
    15bc:	20 e0       	ldi	r18, 0x00	; 0
    15be:	30 e0       	ldi	r19, 0x00	; 0
    15c0:	40 e0       	ldi	r20, 0x00	; 0
    15c2:	5f e3       	ldi	r21, 0x3F	; 63
    15c4:	c3 01       	movw	r24, r6
    15c6:	b2 01       	movw	r22, r4
    15c8:	0e 94 2c 14 	call	0x2858	; 0x2858 <__mulsf3>
    15cc:	9b 01       	movw	r18, r22
    15ce:	ac 01       	movw	r20, r24
    15d0:	c5 01       	movw	r24, r10
    15d2:	b4 01       	movw	r22, r8
    15d4:	fa d6       	rcall	.+3572   	; 0x23ca <__addsf3>
    15d6:	f4 d7       	rcall	.+4072   	; 0x25c0 <__fixsfsi>
    15d8:	4b 01       	movw	r8, r22
    15da:	5c 01       	movw	r10, r24

char find_dupilicate(obstacle* obst, robot* bot) {
	char validation = 0;
	
	for (int i = 0; i < obst->all_object_index; i++) {
		int sonardistance = (obst->start_dist_SONAR + obst->end_dist_SONAR) / 2;
    15dc:	6e 2d       	mov	r22, r14
    15de:	70 e0       	ldi	r23, 0x00	; 0
    15e0:	f9 81       	ldd	r31, Y+1	; 0x01
    15e2:	6f 0f       	add	r22, r31
    15e4:	71 1d       	adc	r23, r1
    15e6:	75 95       	asr	r23
    15e8:	67 95       	ror	r22
		int width = get_linear_width(obst);
		int poisition = (obst->start_angle_IR + (obst->all_objects_array[obst->all_object_index][ALL_ANGULAR_WIDTH] / 2));
		
		if(sonardistance <  obst->all_objects_array[i][ALL_DISTANCE_SONAR] - 5 || obst->all_objects_array[i][ALL_DISTANCE_SONAR] + 5 < sonardistance)
    15ea:	07 2e       	mov	r0, r23
    15ec:	00 0c       	add	r0, r0
    15ee:	88 0b       	sbc	r24, r24
    15f0:	99 0b       	sbc	r25, r25
    15f2:	0e 94 13 13 	call	0x2626	; 0x2626 <__floatsisf>
    15f6:	2b 01       	movw	r4, r22
    15f8:	3c 01       	movw	r6, r24
    15fa:	f0 9e       	mul	r15, r16
    15fc:	f0 01       	movw	r30, r0
    15fe:	f1 9e       	mul	r15, r17
    1600:	f0 0d       	add	r31, r0
    1602:	11 24       	eor	r1, r1
    1604:	8a 81       	ldd	r24, Y+2	; 0x02
    1606:	9b 81       	ldd	r25, Y+3	; 0x03
    1608:	e8 0f       	add	r30, r24
    160a:	f9 1f       	adc	r31, r25
    160c:	ed 5a       	subi	r30, 0xAD	; 173
    160e:	ff 4f       	sbci	r31, 0xFF	; 255
    1610:	60 81       	ld	r22, Z
    1612:	71 81       	ldd	r23, Z+1	; 0x01
    1614:	82 81       	ldd	r24, Z+2	; 0x02
    1616:	93 81       	ldd	r25, Z+3	; 0x03
    1618:	20 e0       	ldi	r18, 0x00	; 0
    161a:	30 e0       	ldi	r19, 0x00	; 0
    161c:	40 ea       	ldi	r20, 0xA0	; 160
    161e:	50 e4       	ldi	r21, 0x40	; 64
    1620:	d3 d6       	rcall	.+3494   	; 0x23c8 <__subsf3>
    1622:	9b 01       	movw	r18, r22
    1624:	ac 01       	movw	r20, r24
    1626:	c3 01       	movw	r24, r6
    1628:	b2 01       	movw	r22, r4
    162a:	5b d7       	rcall	.+3766   	; 0x24e2 <__cmpsf2>
    162c:	88 23       	and	r24, r24
    162e:	04 f1       	brlt	.+64     	; 0x1670 <find_dupilicate+0x14a>
    1630:	f0 9e       	mul	r15, r16
    1632:	f0 01       	movw	r30, r0
    1634:	f1 9e       	mul	r15, r17
    1636:	f0 0d       	add	r31, r0
    1638:	11 24       	eor	r1, r1
    163a:	8a 81       	ldd	r24, Y+2	; 0x02
    163c:	9b 81       	ldd	r25, Y+3	; 0x03
    163e:	e8 0f       	add	r30, r24
    1640:	f9 1f       	adc	r31, r25
    1642:	ed 5a       	subi	r30, 0xAD	; 173
    1644:	ff 4f       	sbci	r31, 0xFF	; 255
    1646:	60 81       	ld	r22, Z
    1648:	71 81       	ldd	r23, Z+1	; 0x01
    164a:	82 81       	ldd	r24, Z+2	; 0x02
    164c:	93 81       	ldd	r25, Z+3	; 0x03
    164e:	20 e0       	ldi	r18, 0x00	; 0
    1650:	30 e0       	ldi	r19, 0x00	; 0
    1652:	40 ea       	ldi	r20, 0xA0	; 160
    1654:	50 e4       	ldi	r21, 0x40	; 64
    1656:	b9 d6       	rcall	.+3442   	; 0x23ca <__addsf3>
    1658:	9b 01       	movw	r18, r22
    165a:	ac 01       	movw	r20, r24
    165c:	ee 24       	eor	r14, r14
    165e:	e3 94       	inc	r14
    1660:	c3 01       	movw	r24, r6
    1662:	b2 01       	movw	r22, r4
    1664:	0e 94 21 14 	call	0x2842	; 0x2842 <__gesf2>
    1668:	18 16       	cp	r1, r24
    166a:	24 f0       	brlt	.+8      	; 0x1674 <find_dupilicate+0x14e>
    166c:	e1 2c       	mov	r14, r1
    166e:	02 c0       	rjmp	.+4      	; 0x1674 <find_dupilicate+0x14e>
			validation++;
    1670:	ee 24       	eor	r14, r14
    1672:	e3 94       	inc	r14
		
		if(width <  obst->all_objects_array[i][ALL_LINEAR_WIDTH] - 5 || obst->all_objects_array[i][ALL_LINEAR_WIDTH] + 5 < width)
    1674:	b1 01       	movw	r22, r2
    1676:	33 0c       	add	r3, r3
    1678:	88 0b       	sbc	r24, r24
    167a:	99 0b       	sbc	r25, r25
    167c:	d4 d7       	rcall	.+4008   	; 0x2626 <__floatsisf>
    167e:	2b 01       	movw	r4, r22
    1680:	3c 01       	movw	r6, r24
    1682:	f0 9e       	mul	r15, r16
    1684:	f0 01       	movw	r30, r0
    1686:	f1 9e       	mul	r15, r17
    1688:	f0 0d       	add	r31, r0
    168a:	11 24       	eor	r1, r1
    168c:	8a 81       	ldd	r24, Y+2	; 0x02
    168e:	9b 81       	ldd	r25, Y+3	; 0x03
    1690:	e8 0f       	add	r30, r24
    1692:	f9 1f       	adc	r31, r25
    1694:	e1 5b       	subi	r30, 0xB1	; 177
    1696:	ff 4f       	sbci	r31, 0xFF	; 255
    1698:	60 81       	ld	r22, Z
    169a:	71 81       	ldd	r23, Z+1	; 0x01
    169c:	82 81       	ldd	r24, Z+2	; 0x02
    169e:	93 81       	ldd	r25, Z+3	; 0x03
    16a0:	20 e0       	ldi	r18, 0x00	; 0
    16a2:	30 e0       	ldi	r19, 0x00	; 0
    16a4:	40 ea       	ldi	r20, 0xA0	; 160
    16a6:	50 e4       	ldi	r21, 0x40	; 64
    16a8:	8f d6       	rcall	.+3358   	; 0x23c8 <__subsf3>
    16aa:	9b 01       	movw	r18, r22
    16ac:	ac 01       	movw	r20, r24
    16ae:	c3 01       	movw	r24, r6
    16b0:	b2 01       	movw	r22, r4
    16b2:	17 d7       	rcall	.+3630   	; 0x24e2 <__cmpsf2>
    16b4:	88 23       	and	r24, r24
    16b6:	e4 f0       	brlt	.+56     	; 0x16f0 <find_dupilicate+0x1ca>
    16b8:	f0 9e       	mul	r15, r16
    16ba:	f0 01       	movw	r30, r0
    16bc:	f1 9e       	mul	r15, r17
    16be:	f0 0d       	add	r31, r0
    16c0:	11 24       	eor	r1, r1
    16c2:	8a 81       	ldd	r24, Y+2	; 0x02
    16c4:	9b 81       	ldd	r25, Y+3	; 0x03
    16c6:	e8 0f       	add	r30, r24
    16c8:	f9 1f       	adc	r31, r25
    16ca:	e1 5b       	subi	r30, 0xB1	; 177
    16cc:	ff 4f       	sbci	r31, 0xFF	; 255
    16ce:	60 81       	ld	r22, Z
    16d0:	71 81       	ldd	r23, Z+1	; 0x01
    16d2:	82 81       	ldd	r24, Z+2	; 0x02
    16d4:	93 81       	ldd	r25, Z+3	; 0x03
    16d6:	20 e0       	ldi	r18, 0x00	; 0
    16d8:	30 e0       	ldi	r19, 0x00	; 0
    16da:	40 ea       	ldi	r20, 0xA0	; 160
    16dc:	50 e4       	ldi	r21, 0x40	; 64
    16de:	75 d6       	rcall	.+3306   	; 0x23ca <__addsf3>
    16e0:	9b 01       	movw	r18, r22
    16e2:	ac 01       	movw	r20, r24
    16e4:	c3 01       	movw	r24, r6
    16e6:	b2 01       	movw	r22, r4
    16e8:	0e 94 21 14 	call	0x2842	; 0x2842 <__gesf2>
    16ec:	18 16       	cp	r1, r24
    16ee:	0c f4       	brge	.+2      	; 0x16f2 <find_dupilicate+0x1cc>
			validation++;
    16f0:	e3 94       	inc	r14
		
		if(poisition <  obst->all_objects_array[i][ALL_POSITION] - 5 || obst->all_objects_array[i][ALL_POSITION] + 5 < poisition)
    16f2:	b4 01       	movw	r22, r8
    16f4:	99 0c       	add	r9, r9
    16f6:	88 0b       	sbc	r24, r24
    16f8:	99 0b       	sbc	r25, r25
    16fa:	95 d7       	rcall	.+3882   	; 0x2626 <__floatsisf>
    16fc:	4b 01       	movw	r8, r22
    16fe:	5c 01       	movw	r10, r24
    1700:	f0 9e       	mul	r15, r16
    1702:	f0 01       	movw	r30, r0
    1704:	f1 9e       	mul	r15, r17
    1706:	f0 0d       	add	r31, r0
    1708:	11 24       	eor	r1, r1
    170a:	8a 81       	ldd	r24, Y+2	; 0x02
    170c:	9b 81       	ldd	r25, Y+3	; 0x03
    170e:	e8 0f       	add	r30, r24
    1710:	f9 1f       	adc	r31, r25
    1712:	e5 5a       	subi	r30, 0xA5	; 165
    1714:	ff 4f       	sbci	r31, 0xFF	; 255
    1716:	60 81       	ld	r22, Z
    1718:	71 81       	ldd	r23, Z+1	; 0x01
    171a:	82 81       	ldd	r24, Z+2	; 0x02
    171c:	93 81       	ldd	r25, Z+3	; 0x03
    171e:	20 e0       	ldi	r18, 0x00	; 0
    1720:	30 e0       	ldi	r19, 0x00	; 0
    1722:	40 ea       	ldi	r20, 0xA0	; 160
    1724:	50 e4       	ldi	r21, 0x40	; 64
    1726:	50 d6       	rcall	.+3232   	; 0x23c8 <__subsf3>
    1728:	9b 01       	movw	r18, r22
    172a:	ac 01       	movw	r20, r24
    172c:	c5 01       	movw	r24, r10
    172e:	b4 01       	movw	r22, r8
    1730:	d8 d6       	rcall	.+3504   	; 0x24e2 <__cmpsf2>
    1732:	88 23       	and	r24, r24
    1734:	e4 f0       	brlt	.+56     	; 0x176e <find_dupilicate+0x248>
    1736:	f0 9e       	mul	r15, r16
    1738:	f0 01       	movw	r30, r0
    173a:	f1 9e       	mul	r15, r17
    173c:	f0 0d       	add	r31, r0
    173e:	11 24       	eor	r1, r1
    1740:	8a 81       	ldd	r24, Y+2	; 0x02
    1742:	9b 81       	ldd	r25, Y+3	; 0x03
    1744:	e8 0f       	add	r30, r24
    1746:	f9 1f       	adc	r31, r25
    1748:	e5 5a       	subi	r30, 0xA5	; 165
    174a:	ff 4f       	sbci	r31, 0xFF	; 255
    174c:	60 81       	ld	r22, Z
    174e:	71 81       	ldd	r23, Z+1	; 0x01
    1750:	82 81       	ldd	r24, Z+2	; 0x02
    1752:	93 81       	ldd	r25, Z+3	; 0x03
    1754:	20 e0       	ldi	r18, 0x00	; 0
    1756:	30 e0       	ldi	r19, 0x00	; 0
    1758:	40 ea       	ldi	r20, 0xA0	; 160
    175a:	50 e4       	ldi	r21, 0x40	; 64
    175c:	36 d6       	rcall	.+3180   	; 0x23ca <__addsf3>
    175e:	9b 01       	movw	r18, r22
    1760:	ac 01       	movw	r20, r24
    1762:	c5 01       	movw	r24, r10
    1764:	b4 01       	movw	r22, r8
    1766:	0e 94 21 14 	call	0x2842	; 0x2842 <__gesf2>
    176a:	18 16       	cp	r1, r24
    176c:	0c f4       	brge	.+2      	; 0x1770 <find_dupilicate+0x24a>
			validation++;
    176e:	e3 94       	inc	r14
		
		if (validation == 3)
    1770:	93 e0       	ldi	r25, 0x03	; 3
    1772:	e9 16       	cp	r14, r25
    1774:	71 f0       	breq	.+28     	; 0x1792 <find_dupilicate+0x26c>
}

char find_dupilicate(obstacle* obst, robot* bot) {
	char validation = 0;
	
	for (int i = 0; i < obst->all_object_index; i++) {
    1776:	0f 5f       	subi	r16, 0xFF	; 255
    1778:	1f 4f       	sbci	r17, 0xFF	; 255
    177a:	f6 01       	movw	r30, r12
    177c:	80 81       	ld	r24, Z
    177e:	8f 70       	andi	r24, 0x0F	; 15
    1780:	90 e0       	ldi	r25, 0x00	; 0
    1782:	08 17       	cp	r16, r24
    1784:	19 07       	cpc	r17, r25
    1786:	0c f4       	brge	.+2      	; 0x178a <find_dupilicate+0x264>
    1788:	f5 ce       	rjmp	.-534    	; 0x1574 <find_dupilicate+0x4e>
		if (validation == 3)
			return 0;
		
		validation = 0;
	}
	return 1;
    178a:	81 e0       	ldi	r24, 0x01	; 1
    178c:	03 c0       	rjmp	.+6      	; 0x1794 <find_dupilicate+0x26e>
    178e:	81 e0       	ldi	r24, 0x01	; 1
    1790:	01 c0       	rjmp	.+2      	; 0x1794 <find_dupilicate+0x26e>
		
		if(poisition <  obst->all_objects_array[i][ALL_POSITION] - 5 || obst->all_objects_array[i][ALL_POSITION] + 5 < poisition)
			validation++;
		
		if (validation == 3)
			return 0;
    1792:	80 e0       	ldi	r24, 0x00	; 0
		
		validation = 0;
	}
	return 1;
    1794:	0f 90       	pop	r0
    1796:	0f 90       	pop	r0
    1798:	0f 90       	pop	r0
    179a:	df 91       	pop	r29
    179c:	cf 91       	pop	r28
    179e:	1f 91       	pop	r17
    17a0:	0f 91       	pop	r16
    17a2:	ff 90       	pop	r15
    17a4:	ef 90       	pop	r14
    17a6:	df 90       	pop	r13
    17a8:	cf 90       	pop	r12
    17aa:	bf 90       	pop	r11
    17ac:	af 90       	pop	r10
    17ae:	9f 90       	pop	r9
    17b0:	8f 90       	pop	r8
    17b2:	7f 90       	pop	r7
    17b4:	6f 90       	pop	r6
    17b6:	5f 90       	pop	r5
    17b8:	4f 90       	pop	r4
    17ba:	3f 90       	pop	r3
    17bc:	2f 90       	pop	r2
    17be:	08 95       	ret

000017c0 <find_objs_IR>:
			obst->all_objects_array[i][j] = 0;
		}
	}*/
}

void find_objs_IR(obstacle* obst, robot* bot) {
    17c0:	2f 92       	push	r2
    17c2:	3f 92       	push	r3
    17c4:	4f 92       	push	r4
    17c6:	5f 92       	push	r5
    17c8:	6f 92       	push	r6
    17ca:	7f 92       	push	r7
    17cc:	8f 92       	push	r8
    17ce:	9f 92       	push	r9
    17d0:	af 92       	push	r10
    17d2:	bf 92       	push	r11
    17d4:	cf 92       	push	r12
    17d6:	df 92       	push	r13
    17d8:	ef 92       	push	r14
    17da:	ff 92       	push	r15
    17dc:	0f 93       	push	r16
    17de:	1f 93       	push	r17
    17e0:	cf 93       	push	r28
    17e2:	df 93       	push	r29
    17e4:	ec 01       	movw	r28, r24
    17e6:	8b 01       	movw	r16, r22
	if (obst->cur_dist_IR <= MAX_DETECTION_DISTANCE) { // Current IR measured distance is within detection range?
    17e8:	8c 81       	ldd	r24, Y+4	; 0x04
    17ea:	9d 81       	ldd	r25, Y+5	; 0x05
    17ec:	c3 97       	sbiw	r24, 0x33	; 51
    17ee:	2c f5       	brge	.+74     	; 0x183a <find_objs_IR+0x7a>
		if (obst->object_detected == 0) { // If yes, are we looking for a new object?
    17f0:	8c 85       	ldd	r24, Y+12	; 0x0c
    17f2:	80 fd       	sbrc	r24, 0
    17f4:	13 c0       	rjmp	.+38     	; 0x181c <find_objs_IR+0x5c>
			obst->object_detected = 1; // We've detected something
    17f6:	8c 85       	ldd	r24, Y+12	; 0x0c
    17f8:	81 60       	ori	r24, 0x01	; 1
    17fa:	8c 87       	std	Y+12, r24	; 0x0c
			obst->start_angle_IR = obst->degrees; // Log start angle
    17fc:	68 81       	ld	r22, Y
    17fe:	79 81       	ldd	r23, Y+1	; 0x01
    1800:	8a 81       	ldd	r24, Y+2	; 0x02
    1802:	9b 81       	ldd	r25, Y+3	; 0x03
    1804:	e2 d6       	rcall	.+3524   	; 0x25ca <__fixunssfsi>
    1806:	6a 87       	std	Y+10, r22	; 0x0a
			obst->start_dist_SONAR = obst->cur_dist_SONAR; // Log distance measured by sonar as start distance (IR is less consistent, but computed averages anyway as backup)
    1808:	6d 85       	ldd	r22, Y+13	; 0x0d
    180a:	7e 85       	ldd	r23, Y+14	; 0x0e
    180c:	8f 85       	ldd	r24, Y+15	; 0x0f
    180e:	98 89       	ldd	r25, Y+16	; 0x10
    1810:	dc d6       	rcall	.+3512   	; 0x25ca <__fixunssfsi>
    1812:	6d 8b       	std	Y+21, r22	; 0x15
			obst->validation_level++; // Begin object validation sequence
    1814:	89 a5       	ldd	r24, Y+41	; 0x29
    1816:	8f 5f       	subi	r24, 0xFF	; 255
    1818:	89 a7       	std	Y+41, r24	; 0x29
    181a:	47 c2       	rjmp	.+1166   	; 0x1caa <find_objs_IR+0x4ea>
		} else if (obst->object_detected == 1) { // Continue object validation sequence if still in detection range
    181c:	8c 85       	ldd	r24, Y+12	; 0x0c
    181e:	80 ff       	sbrs	r24, 0
    1820:	44 c2       	rjmp	.+1160   	; 0x1caa <find_objs_IR+0x4ea>
			obst->validation_level++;
    1822:	89 a5       	ldd	r24, Y+41	; 0x29
    1824:	8f 5f       	subi	r24, 0xFF	; 255
    1826:	89 a7       	std	Y+41, r24	; 0x29
			obst->total_dist_IR += obst->cur_dist_IR; // Find total distance measured by IR
    1828:	8c 81       	ldd	r24, Y+4	; 0x04
    182a:	9d 81       	ldd	r25, Y+5	; 0x05
    182c:	28 85       	ldd	r18, Y+8	; 0x08
    182e:	39 85       	ldd	r19, Y+9	; 0x09
    1830:	82 0f       	add	r24, r18
    1832:	93 1f       	adc	r25, r19
    1834:	99 87       	std	Y+9, r25	; 0x09
    1836:	88 87       	std	Y+8, r24	; 0x08
    1838:	38 c2       	rjmp	.+1136   	; 0x1caa <find_objs_IR+0x4ea>
		}
		} else {
		if ((obst->object_detected == 1 && obst->validation_level >= SMALL_OBJECT_SIZE_MIN) && find_dupilicate(obst, bot)) { // We've finished seeing the object. Is the object valid (at least as big as smallest object size)?
    183a:	8c 85       	ldd	r24, Y+12	; 0x0c
    183c:	80 ff       	sbrs	r24, 0
    183e:	2a c2       	rjmp	.+1108   	; 0x1c94 <find_objs_IR+0x4d4>
    1840:	89 a5       	ldd	r24, Y+41	; 0x29
    1842:	83 30       	cpi	r24, 0x03	; 3
    1844:	08 f4       	brcc	.+2      	; 0x1848 <find_objs_IR+0x88>
    1846:	26 c2       	rjmp	.+1100   	; 0x1c94 <find_objs_IR+0x4d4>
    1848:	ce 01       	movw	r24, r28
    184a:	6d de       	rcall	.-806    	; 0x1526 <find_dupilicate>
    184c:	88 23       	and	r24, r24
    184e:	09 f4       	brne	.+2      	; 0x1852 <find_objs_IR+0x92>
    1850:	21 c2       	rjmp	.+1090   	; 0x1c94 <find_objs_IR+0x4d4>
			obst->end_angle_IR = obst->degrees - 1; // Log the last measured angle
    1852:	68 81       	ld	r22, Y
    1854:	79 81       	ldd	r23, Y+1	; 0x01
    1856:	8a 81       	ldd	r24, Y+2	; 0x02
    1858:	9b 81       	ldd	r25, Y+3	; 0x03
    185a:	20 e0       	ldi	r18, 0x00	; 0
    185c:	30 e0       	ldi	r19, 0x00	; 0
    185e:	40 e8       	ldi	r20, 0x80	; 128
    1860:	5f e3       	ldi	r21, 0x3F	; 63
    1862:	b2 d5       	rcall	.+2916   	; 0x23c8 <__subsf3>
    1864:	b2 d6       	rcall	.+3428   	; 0x25ca <__fixunssfsi>
    1866:	6b 87       	std	Y+11, r22	; 0x0b
			obst->end_dist_SONAR = obst->last_dist_SONAR; // Log the last distance measured by the sonar as end distance (same reason as before)
    1868:	69 89       	ldd	r22, Y+17	; 0x11
    186a:	7a 89       	ldd	r23, Y+18	; 0x12
    186c:	8b 89       	ldd	r24, Y+19	; 0x13
    186e:	9c 89       	ldd	r25, Y+20	; 0x14
    1870:	ac d6       	rcall	.+3416   	; 0x25ca <__fixunssfsi>
    1872:	6e 8b       	std	Y+22, r22	; 0x16
			obst->object_detected = 0; // Reset detection variable
    1874:	8c 85       	ldd	r24, Y+12	; 0x0c
    1876:	8e 7f       	andi	r24, 0xFE	; 254
    1878:	8c 87       	std	Y+12, r24	; 0x0c
			obst->all_objects_array[obst->all_object_index][ALL_ANGULAR_WIDTH] = obst->end_angle_IR - obst->start_angle_IR; // Log calculated object angular size
    187a:	6e 01       	movw	r12, r28
    187c:	8d e6       	ldi	r24, 0x6D	; 109
    187e:	c8 1a       	sub	r12, r24
    1880:	8c ef       	ldi	r24, 0xFC	; 252
    1882:	d8 0a       	sbc	r13, r24
    1884:	f6 01       	movw	r30, r12
    1886:	80 81       	ld	r24, Z
    1888:	8f 70       	andi	r24, 0x0F	; 15
    188a:	e8 2e       	mov	r14, r24
    188c:	f1 2c       	mov	r15, r1
    188e:	6b 85       	ldd	r22, Y+11	; 0x0b
    1890:	8a 85       	ldd	r24, Y+10	; 0x0a
    1892:	70 e0       	ldi	r23, 0x00	; 0
    1894:	68 1b       	sub	r22, r24
    1896:	71 09       	sbc	r23, r1
    1898:	07 2e       	mov	r0, r23
    189a:	00 0c       	add	r0, r0
    189c:	88 0b       	sbc	r24, r24
    189e:	99 0b       	sbc	r25, r25
    18a0:	c2 d6       	rcall	.+3460   	; 0x2626 <__floatsisf>
    18a2:	2c e1       	ldi	r18, 0x1C	; 28
    18a4:	2e 9d       	mul	r18, r14
    18a6:	f0 01       	movw	r30, r0
    18a8:	2f 9d       	mul	r18, r15
    18aa:	f0 0d       	add	r31, r0
    18ac:	11 24       	eor	r1, r1
    18ae:	ec 0f       	add	r30, r28
    18b0:	fd 1f       	adc	r31, r29
    18b2:	e5 5b       	subi	r30, 0xB5	; 181
    18b4:	ff 4f       	sbci	r31, 0xFF	; 255
    18b6:	60 83       	st	Z, r22
    18b8:	71 83       	std	Z+1, r23	; 0x01
    18ba:	82 83       	std	Z+2, r24	; 0x02
    18bc:	93 83       	std	Z+3, r25	; 0x03
			obst->all_objects_array[obst->all_object_index][ALL_DISTANCE_SONAR] = (obst->start_dist_SONAR + obst->end_dist_SONAR) / 2; // Log calculated object distance
    18be:	f6 01       	movw	r30, r12
    18c0:	80 81       	ld	r24, Z
    18c2:	8f 70       	andi	r24, 0x0F	; 15
    18c4:	e8 2e       	mov	r14, r24
    18c6:	f1 2c       	mov	r15, r1
    18c8:	8d 89       	ldd	r24, Y+21	; 0x15
    18ca:	6e 89       	ldd	r22, Y+22	; 0x16
    18cc:	70 e0       	ldi	r23, 0x00	; 0
    18ce:	68 0f       	add	r22, r24
    18d0:	71 1d       	adc	r23, r1
    18d2:	75 95       	asr	r23
    18d4:	67 95       	ror	r22
    18d6:	07 2e       	mov	r0, r23
    18d8:	00 0c       	add	r0, r0
    18da:	88 0b       	sbc	r24, r24
    18dc:	99 0b       	sbc	r25, r25
    18de:	a3 d6       	rcall	.+3398   	; 0x2626 <__floatsisf>
    18e0:	0f 2e       	mov	r0, r31
    18e2:	fc e1       	ldi	r31, 0x1C	; 28
    18e4:	3f 2e       	mov	r3, r31
    18e6:	f0 2d       	mov	r31, r0
    18e8:	3e 9c       	mul	r3, r14
    18ea:	f0 01       	movw	r30, r0
    18ec:	3f 9c       	mul	r3, r15
    18ee:	f0 0d       	add	r31, r0
    18f0:	11 24       	eor	r1, r1
    18f2:	ec 0f       	add	r30, r28
    18f4:	fd 1f       	adc	r31, r29
    18f6:	ed 5a       	subi	r30, 0xAD	; 173
    18f8:	ff 4f       	sbci	r31, 0xFF	; 255
    18fa:	60 83       	st	Z, r22
    18fc:	71 83       	std	Z+1, r23	; 0x01
    18fe:	82 83       	std	Z+2, r24	; 0x02
    1900:	93 83       	std	Z+3, r25	; 0x03
			obst->all_objects_array[obst->all_object_index][ALL_DISTANCE_IR] = obst->total_dist_IR / (obst->validation_level - 1); // IR Distance = Average = Sum/N (total distance/number of distance measurements), where validation level serves as N - 1 (to account for extra sample at line 113)
    1902:	76 01       	movw	r14, r12
    1904:	f6 01       	movw	r30, r12
    1906:	80 81       	ld	r24, Z
    1908:	8f 70       	andi	r24, 0x0F	; 15
    190a:	c8 2e       	mov	r12, r24
    190c:	d1 2c       	mov	r13, r1
    190e:	88 85       	ldd	r24, Y+8	; 0x08
    1910:	99 85       	ldd	r25, Y+9	; 0x09
    1912:	69 a5       	ldd	r22, Y+41	; 0x29
    1914:	70 e0       	ldi	r23, 0x00	; 0
    1916:	61 50       	subi	r22, 0x01	; 1
    1918:	71 09       	sbc	r23, r1
    191a:	0e 94 d3 19 	call	0x33a6	; 0x33a6 <__divmodhi4>
    191e:	07 2e       	mov	r0, r23
    1920:	00 0c       	add	r0, r0
    1922:	88 0b       	sbc	r24, r24
    1924:	99 0b       	sbc	r25, r25
    1926:	7f d6       	rcall	.+3326   	; 0x2626 <__floatsisf>
    1928:	3c 9c       	mul	r3, r12
    192a:	f0 01       	movw	r30, r0
    192c:	3d 9c       	mul	r3, r13
    192e:	f0 0d       	add	r31, r0
    1930:	11 24       	eor	r1, r1
    1932:	ec 0f       	add	r30, r28
    1934:	fd 1f       	adc	r31, r29
    1936:	e9 5a       	subi	r30, 0xA9	; 169
    1938:	ff 4f       	sbci	r31, 0xFF	; 255
    193a:	60 83       	st	Z, r22
    193c:	71 83       	std	Z+1, r23	; 0x01
    193e:	82 83       	std	Z+2, r24	; 0x02
    1940:	93 83       	std	Z+3, r25	; 0x03
			obst->all_objects_array[obst->all_object_index][ALL_LINEAR_WIDTH] = get_linear_width(obst); // Log calculated linear width
    1942:	f7 01       	movw	r30, r14
    1944:	80 81       	ld	r24, Z
    1946:	8f 70       	andi	r24, 0x0F	; 15
    1948:	c8 2e       	mov	r12, r24
    194a:	d1 2c       	mov	r13, r1
    194c:	ce 01       	movw	r24, r28
    194e:	90 d8       	rcall	.-3808   	; 0xa70 <get_linear_width>
    1950:	68 2f       	mov	r22, r24
    1952:	70 e0       	ldi	r23, 0x00	; 0
    1954:	80 e0       	ldi	r24, 0x00	; 0
    1956:	90 e0       	ldi	r25, 0x00	; 0
    1958:	64 d6       	rcall	.+3272   	; 0x2622 <__floatunsisf>
    195a:	3c 9c       	mul	r3, r12
    195c:	f0 01       	movw	r30, r0
    195e:	3d 9c       	mul	r3, r13
    1960:	f0 0d       	add	r31, r0
    1962:	11 24       	eor	r1, r1
    1964:	ec 0f       	add	r30, r28
    1966:	fd 1f       	adc	r31, r29
    1968:	e1 5b       	subi	r30, 0xB1	; 177
    196a:	ff 4f       	sbci	r31, 0xFF	; 255
    196c:	60 83       	st	Z, r22
    196e:	71 83       	std	Z+1, r23	; 0x01
    1970:	82 83       	std	Z+2, r24	; 0x02
    1972:	93 83       	std	Z+3, r25	; 0x03
			obst->all_objects_array[obst->all_object_index][ALL_POSITION] = (obst->start_angle_IR + (obst->all_objects_array[obst->all_object_index][ALL_ANGULAR_WIDTH] / 2)); // Log calculated object angular position
    1974:	f7 01       	movw	r30, r14
    1976:	80 81       	ld	r24, Z
    1978:	8f 70       	andi	r24, 0x0F	; 15
    197a:	c8 2e       	mov	r12, r24
    197c:	d1 2c       	mov	r13, r1
    197e:	6a 85       	ldd	r22, Y+10	; 0x0a
    1980:	80 81       	ld	r24, Z
    1982:	8f 70       	andi	r24, 0x0F	; 15
    1984:	fe 01       	movw	r30, r28
    1986:	38 9e       	mul	r3, r24
    1988:	e0 0d       	add	r30, r0
    198a:	f1 1d       	adc	r31, r1
    198c:	11 24       	eor	r1, r1
    198e:	e5 5b       	subi	r30, 0xB5	; 181
    1990:	ff 4f       	sbci	r31, 0xFF	; 255
    1992:	40 80       	ld	r4, Z
    1994:	51 80       	ldd	r5, Z+1	; 0x01
    1996:	62 80       	ldd	r6, Z+2	; 0x02
    1998:	73 80       	ldd	r7, Z+3	; 0x03
    199a:	70 e0       	ldi	r23, 0x00	; 0
    199c:	80 e0       	ldi	r24, 0x00	; 0
    199e:	90 e0       	ldi	r25, 0x00	; 0
    19a0:	42 d6       	rcall	.+3204   	; 0x2626 <__floatsisf>
    19a2:	4b 01       	movw	r8, r22
    19a4:	5c 01       	movw	r10, r24
    19a6:	20 e0       	ldi	r18, 0x00	; 0
    19a8:	30 e0       	ldi	r19, 0x00	; 0
    19aa:	40 e0       	ldi	r20, 0x00	; 0
    19ac:	5f e3       	ldi	r21, 0x3F	; 63
    19ae:	c3 01       	movw	r24, r6
    19b0:	b2 01       	movw	r22, r4
    19b2:	52 d7       	rcall	.+3748   	; 0x2858 <__mulsf3>
    19b4:	9b 01       	movw	r18, r22
    19b6:	ac 01       	movw	r20, r24
    19b8:	c5 01       	movw	r24, r10
    19ba:	b4 01       	movw	r22, r8
    19bc:	06 d5       	rcall	.+2572   	; 0x23ca <__addsf3>
    19be:	3c 9c       	mul	r3, r12
    19c0:	f0 01       	movw	r30, r0
    19c2:	3d 9c       	mul	r3, r13
    19c4:	f0 0d       	add	r31, r0
    19c6:	11 24       	eor	r1, r1
    19c8:	ec 0f       	add	r30, r28
    19ca:	fd 1f       	adc	r31, r29
    19cc:	e5 5a       	subi	r30, 0xA5	; 165
    19ce:	ff 4f       	sbci	r31, 0xFF	; 255
    19d0:	60 83       	st	Z, r22
    19d2:	71 83       	std	Z+1, r23	; 0x01
    19d4:	82 83       	std	Z+2, r24	; 0x02
    19d6:	93 83       	std	Z+3, r25	; 0x03
			if (bot->angle - 90 + obst->all_objects_array[obst->all_object_index][ALL_POSITION] > 360) {
    19d8:	20 e0       	ldi	r18, 0x00	; 0
    19da:	30 e0       	ldi	r19, 0x00	; 0
    19dc:	44 eb       	ldi	r20, 0xB4	; 180
    19de:	52 e4       	ldi	r21, 0x42	; 66
    19e0:	f8 01       	movw	r30, r16
    19e2:	60 85       	ldd	r22, Z+8	; 0x08
    19e4:	71 85       	ldd	r23, Z+9	; 0x09
    19e6:	82 85       	ldd	r24, Z+10	; 0x0a
    19e8:	93 85       	ldd	r25, Z+11	; 0x0b
    19ea:	ee d4       	rcall	.+2524   	; 0x23c8 <__subsf3>
    19ec:	4b 01       	movw	r8, r22
    19ee:	5c 01       	movw	r10, r24
    19f0:	f7 01       	movw	r30, r14
    19f2:	80 81       	ld	r24, Z
    19f4:	8f 70       	andi	r24, 0x0F	; 15
    19f6:	fe 01       	movw	r30, r28
    19f8:	38 9e       	mul	r3, r24
    19fa:	e0 0d       	add	r30, r0
    19fc:	f1 1d       	adc	r31, r1
    19fe:	11 24       	eor	r1, r1
    1a00:	e5 5a       	subi	r30, 0xA5	; 165
    1a02:	ff 4f       	sbci	r31, 0xFF	; 255
    1a04:	20 81       	ld	r18, Z
    1a06:	31 81       	ldd	r19, Z+1	; 0x01
    1a08:	42 81       	ldd	r20, Z+2	; 0x02
    1a0a:	53 81       	ldd	r21, Z+3	; 0x03
    1a0c:	c5 01       	movw	r24, r10
    1a0e:	b4 01       	movw	r22, r8
    1a10:	dc d4       	rcall	.+2488   	; 0x23ca <__addsf3>
    1a12:	20 e0       	ldi	r18, 0x00	; 0
    1a14:	30 e0       	ldi	r19, 0x00	; 0
    1a16:	44 eb       	ldi	r20, 0xB4	; 180
    1a18:	53 e4       	ldi	r21, 0x43	; 67
    1a1a:	13 d7       	rcall	.+3622   	; 0x2842 <__gesf2>
    1a1c:	18 16       	cp	r1, r24
    1a1e:	0c f0       	brlt	.+2      	; 0x1a22 <find_objs_IR+0x262>
    1a20:	97 c0       	rjmp	.+302    	; 0x1b50 <find_objs_IR+0x390>
				obst->all_objects_array[obst->all_object_index][ALL_X] = bot->x + obst->all_objects_array[obst->all_object_index][ALL_DISTANCE_SONAR] * cos((bot->angle - 90 + obst->all_objects_array[obst->all_object_index][ALL_POSITION] - 360) * (3.141516/180));
    1a22:	67 01       	movw	r12, r14
    1a24:	f7 01       	movw	r30, r14
    1a26:	80 81       	ld	r24, Z
    1a28:	8f 70       	andi	r24, 0x0F	; 15
    1a2a:	28 2e       	mov	r2, r24
    1a2c:	31 2c       	mov	r3, r1
    1a2e:	80 81       	ld	r24, Z
    1a30:	8f 70       	andi	r24, 0x0F	; 15
    1a32:	0f 2e       	mov	r0, r31
    1a34:	fc e1       	ldi	r31, 0x1C	; 28
    1a36:	ff 2e       	mov	r15, r31
    1a38:	f0 2d       	mov	r31, r0
    1a3a:	fe 01       	movw	r30, r28
    1a3c:	f8 9e       	mul	r15, r24
    1a3e:	e0 0d       	add	r30, r0
    1a40:	f1 1d       	adc	r31, r1
    1a42:	11 24       	eor	r1, r1
    1a44:	ed 5a       	subi	r30, 0xAD	; 173
    1a46:	ff 4f       	sbci	r31, 0xFF	; 255
    1a48:	40 80       	ld	r4, Z
    1a4a:	51 80       	ldd	r5, Z+1	; 0x01
    1a4c:	62 80       	ldd	r6, Z+2	; 0x02
    1a4e:	73 80       	ldd	r7, Z+3	; 0x03
    1a50:	f6 01       	movw	r30, r12
    1a52:	80 81       	ld	r24, Z
    1a54:	8f 70       	andi	r24, 0x0F	; 15
    1a56:	fe 01       	movw	r30, r28
    1a58:	f8 9e       	mul	r15, r24
    1a5a:	e0 0d       	add	r30, r0
    1a5c:	f1 1d       	adc	r31, r1
    1a5e:	11 24       	eor	r1, r1
    1a60:	e5 5a       	subi	r30, 0xA5	; 165
    1a62:	ff 4f       	sbci	r31, 0xFF	; 255
    1a64:	20 81       	ld	r18, Z
    1a66:	31 81       	ldd	r19, Z+1	; 0x01
    1a68:	42 81       	ldd	r20, Z+2	; 0x02
    1a6a:	53 81       	ldd	r21, Z+3	; 0x03
    1a6c:	c5 01       	movw	r24, r10
    1a6e:	b4 01       	movw	r22, r8
    1a70:	ac d4       	rcall	.+2392   	; 0x23ca <__addsf3>
    1a72:	20 e0       	ldi	r18, 0x00	; 0
    1a74:	30 e0       	ldi	r19, 0x00	; 0
    1a76:	44 eb       	ldi	r20, 0xB4	; 180
    1a78:	53 e4       	ldi	r21, 0x43	; 67
    1a7a:	a6 d4       	rcall	.+2380   	; 0x23c8 <__subsf3>
    1a7c:	20 e5       	ldi	r18, 0x50	; 80
    1a7e:	39 ef       	ldi	r19, 0xF9	; 249
    1a80:	4e e8       	ldi	r20, 0x8E	; 142
    1a82:	5c e3       	ldi	r21, 0x3C	; 60
    1a84:	e9 d6       	rcall	.+3538   	; 0x2858 <__mulsf3>
    1a86:	31 d5       	rcall	.+2658   	; 0x24ea <cos>
    1a88:	9b 01       	movw	r18, r22
    1a8a:	ac 01       	movw	r20, r24
    1a8c:	c3 01       	movw	r24, r6
    1a8e:	b2 01       	movw	r22, r4
    1a90:	e3 d6       	rcall	.+3526   	; 0x2858 <__mulsf3>
    1a92:	f8 01       	movw	r30, r16
    1a94:	20 81       	ld	r18, Z
    1a96:	31 81       	ldd	r19, Z+1	; 0x01
    1a98:	42 81       	ldd	r20, Z+2	; 0x02
    1a9a:	53 81       	ldd	r21, Z+3	; 0x03
    1a9c:	96 d4       	rcall	.+2348   	; 0x23ca <__addsf3>
    1a9e:	f2 9c       	mul	r15, r2
    1aa0:	f0 01       	movw	r30, r0
    1aa2:	f3 9c       	mul	r15, r3
    1aa4:	f0 0d       	add	r31, r0
    1aa6:	11 24       	eor	r1, r1
    1aa8:	ec 0f       	add	r30, r28
    1aaa:	fd 1f       	adc	r31, r29
    1aac:	e1 5a       	subi	r30, 0xA1	; 161
    1aae:	ff 4f       	sbci	r31, 0xFF	; 255
    1ab0:	60 83       	st	Z, r22
    1ab2:	71 83       	std	Z+1, r23	; 0x01
    1ab4:	82 83       	std	Z+2, r24	; 0x02
    1ab6:	93 83       	std	Z+3, r25	; 0x03
				obst->all_objects_array[obst->all_object_index][ALL_Y] = bot->y + obst->all_objects_array[obst->all_object_index][ALL_DISTANCE_SONAR] * sin((bot->angle - 90 + obst->all_objects_array[obst->all_object_index][ALL_POSITION]) * (3.141516/180));
    1ab8:	f6 01       	movw	r30, r12
    1aba:	80 81       	ld	r24, Z
    1abc:	8f 70       	andi	r24, 0x0F	; 15
    1abe:	28 2e       	mov	r2, r24
    1ac0:	31 2c       	mov	r3, r1
    1ac2:	80 81       	ld	r24, Z
    1ac4:	8f 70       	andi	r24, 0x0F	; 15
    1ac6:	fe 01       	movw	r30, r28
    1ac8:	f8 9e       	mul	r15, r24
    1aca:	e0 0d       	add	r30, r0
    1acc:	f1 1d       	adc	r31, r1
    1ace:	11 24       	eor	r1, r1
    1ad0:	ed 5a       	subi	r30, 0xAD	; 173
    1ad2:	ff 4f       	sbci	r31, 0xFF	; 255
    1ad4:	40 80       	ld	r4, Z
    1ad6:	51 80       	ldd	r5, Z+1	; 0x01
    1ad8:	62 80       	ldd	r6, Z+2	; 0x02
    1ada:	73 80       	ldd	r7, Z+3	; 0x03
    1adc:	f6 01       	movw	r30, r12
    1ade:	80 81       	ld	r24, Z
    1ae0:	8f 70       	andi	r24, 0x0F	; 15
    1ae2:	fe 01       	movw	r30, r28
    1ae4:	f8 9e       	mul	r15, r24
    1ae6:	e0 0d       	add	r30, r0
    1ae8:	f1 1d       	adc	r31, r1
    1aea:	11 24       	eor	r1, r1
    1aec:	e5 5a       	subi	r30, 0xA5	; 165
    1aee:	ff 4f       	sbci	r31, 0xFF	; 255
    1af0:	80 80       	ld	r8, Z
    1af2:	91 80       	ldd	r9, Z+1	; 0x01
    1af4:	a2 80       	ldd	r10, Z+2	; 0x02
    1af6:	b3 80       	ldd	r11, Z+3	; 0x03
    1af8:	20 e0       	ldi	r18, 0x00	; 0
    1afa:	30 e0       	ldi	r19, 0x00	; 0
    1afc:	44 eb       	ldi	r20, 0xB4	; 180
    1afe:	52 e4       	ldi	r21, 0x42	; 66
    1b00:	f8 01       	movw	r30, r16
    1b02:	60 85       	ldd	r22, Z+8	; 0x08
    1b04:	71 85       	ldd	r23, Z+9	; 0x09
    1b06:	82 85       	ldd	r24, Z+10	; 0x0a
    1b08:	93 85       	ldd	r25, Z+11	; 0x0b
    1b0a:	5e d4       	rcall	.+2236   	; 0x23c8 <__subsf3>
    1b0c:	a5 01       	movw	r20, r10
    1b0e:	94 01       	movw	r18, r8
    1b10:	5c d4       	rcall	.+2232   	; 0x23ca <__addsf3>
    1b12:	20 e5       	ldi	r18, 0x50	; 80
    1b14:	39 ef       	ldi	r19, 0xF9	; 249
    1b16:	4e e8       	ldi	r20, 0x8E	; 142
    1b18:	5c e3       	ldi	r21, 0x3C	; 60
    1b1a:	9e d6       	rcall	.+3388   	; 0x2858 <__mulsf3>
    1b1c:	4c d7       	rcall	.+3736   	; 0x29b6 <sin>
    1b1e:	9b 01       	movw	r18, r22
    1b20:	ac 01       	movw	r20, r24
    1b22:	c3 01       	movw	r24, r6
    1b24:	b2 01       	movw	r22, r4
    1b26:	98 d6       	rcall	.+3376   	; 0x2858 <__mulsf3>
    1b28:	f8 01       	movw	r30, r16
    1b2a:	24 81       	ldd	r18, Z+4	; 0x04
    1b2c:	35 81       	ldd	r19, Z+5	; 0x05
    1b2e:	46 81       	ldd	r20, Z+6	; 0x06
    1b30:	57 81       	ldd	r21, Z+7	; 0x07
    1b32:	4b d4       	rcall	.+2198   	; 0x23ca <__addsf3>
    1b34:	f2 9c       	mul	r15, r2
    1b36:	f0 01       	movw	r30, r0
    1b38:	f3 9c       	mul	r15, r3
    1b3a:	f0 0d       	add	r31, r0
    1b3c:	11 24       	eor	r1, r1
    1b3e:	ec 0f       	add	r30, r28
    1b40:	fd 1f       	adc	r31, r29
    1b42:	ed 59       	subi	r30, 0x9D	; 157
    1b44:	ff 4f       	sbci	r31, 0xFF	; 255
    1b46:	60 83       	st	Z, r22
    1b48:	71 83       	std	Z+1, r23	; 0x01
    1b4a:	82 83       	std	Z+2, r24	; 0x02
    1b4c:	93 83       	std	Z+3, r25	; 0x03
    1b4e:	95 c0       	rjmp	.+298    	; 0x1c7a <find_objs_IR+0x4ba>
			} else {
				obst->all_objects_array[obst->all_object_index][ALL_X] = bot->x + obst->all_objects_array[obst->all_object_index][ALL_DISTANCE_SONAR] * cos((bot->angle - 90 + obst->all_objects_array[obst->all_object_index][ALL_POSITION]) * (3.141516/180)); // Assign X coordinate of object in respect to the bot
    1b50:	6e 01       	movw	r12, r28
    1b52:	fd e6       	ldi	r31, 0x6D	; 109
    1b54:	cf 1a       	sub	r12, r31
    1b56:	fc ef       	ldi	r31, 0xFC	; 252
    1b58:	df 0a       	sbc	r13, r31
    1b5a:	f6 01       	movw	r30, r12
    1b5c:	80 81       	ld	r24, Z
    1b5e:	8f 70       	andi	r24, 0x0F	; 15
    1b60:	28 2e       	mov	r2, r24
    1b62:	31 2c       	mov	r3, r1
    1b64:	80 81       	ld	r24, Z
    1b66:	8f 70       	andi	r24, 0x0F	; 15
    1b68:	0f 2e       	mov	r0, r31
    1b6a:	fc e1       	ldi	r31, 0x1C	; 28
    1b6c:	ff 2e       	mov	r15, r31
    1b6e:	f0 2d       	mov	r31, r0
    1b70:	fe 01       	movw	r30, r28
    1b72:	f8 9e       	mul	r15, r24
    1b74:	e0 0d       	add	r30, r0
    1b76:	f1 1d       	adc	r31, r1
    1b78:	11 24       	eor	r1, r1
    1b7a:	ed 5a       	subi	r30, 0xAD	; 173
    1b7c:	ff 4f       	sbci	r31, 0xFF	; 255
    1b7e:	40 80       	ld	r4, Z
    1b80:	51 80       	ldd	r5, Z+1	; 0x01
    1b82:	62 80       	ldd	r6, Z+2	; 0x02
    1b84:	73 80       	ldd	r7, Z+3	; 0x03
    1b86:	f6 01       	movw	r30, r12
    1b88:	80 81       	ld	r24, Z
    1b8a:	8f 70       	andi	r24, 0x0F	; 15
    1b8c:	fe 01       	movw	r30, r28
    1b8e:	f8 9e       	mul	r15, r24
    1b90:	e0 0d       	add	r30, r0
    1b92:	f1 1d       	adc	r31, r1
    1b94:	11 24       	eor	r1, r1
    1b96:	e5 5a       	subi	r30, 0xA5	; 165
    1b98:	ff 4f       	sbci	r31, 0xFF	; 255
    1b9a:	20 81       	ld	r18, Z
    1b9c:	31 81       	ldd	r19, Z+1	; 0x01
    1b9e:	42 81       	ldd	r20, Z+2	; 0x02
    1ba0:	53 81       	ldd	r21, Z+3	; 0x03
    1ba2:	c5 01       	movw	r24, r10
    1ba4:	b4 01       	movw	r22, r8
    1ba6:	11 d4       	rcall	.+2082   	; 0x23ca <__addsf3>
    1ba8:	20 e5       	ldi	r18, 0x50	; 80
    1baa:	39 ef       	ldi	r19, 0xF9	; 249
    1bac:	4e e8       	ldi	r20, 0x8E	; 142
    1bae:	5c e3       	ldi	r21, 0x3C	; 60
    1bb0:	53 d6       	rcall	.+3238   	; 0x2858 <__mulsf3>
    1bb2:	9b d4       	rcall	.+2358   	; 0x24ea <cos>
    1bb4:	9b 01       	movw	r18, r22
    1bb6:	ac 01       	movw	r20, r24
    1bb8:	c3 01       	movw	r24, r6
    1bba:	b2 01       	movw	r22, r4
    1bbc:	4d d6       	rcall	.+3226   	; 0x2858 <__mulsf3>
    1bbe:	f8 01       	movw	r30, r16
    1bc0:	20 81       	ld	r18, Z
    1bc2:	31 81       	ldd	r19, Z+1	; 0x01
    1bc4:	42 81       	ldd	r20, Z+2	; 0x02
    1bc6:	53 81       	ldd	r21, Z+3	; 0x03
    1bc8:	00 d4       	rcall	.+2048   	; 0x23ca <__addsf3>
    1bca:	f2 9c       	mul	r15, r2
    1bcc:	f0 01       	movw	r30, r0
    1bce:	f3 9c       	mul	r15, r3
    1bd0:	f0 0d       	add	r31, r0
    1bd2:	11 24       	eor	r1, r1
    1bd4:	ec 0f       	add	r30, r28
    1bd6:	fd 1f       	adc	r31, r29
    1bd8:	e1 5a       	subi	r30, 0xA1	; 161
    1bda:	ff 4f       	sbci	r31, 0xFF	; 255
    1bdc:	60 83       	st	Z, r22
    1bde:	71 83       	std	Z+1, r23	; 0x01
    1be0:	82 83       	std	Z+2, r24	; 0x02
    1be2:	93 83       	std	Z+3, r25	; 0x03
				obst->all_objects_array[obst->all_object_index][ALL_Y] = bot->y + obst->all_objects_array[obst->all_object_index][ALL_DISTANCE_SONAR] * sin((bot->angle - 90 + obst->all_objects_array[obst->all_object_index][ALL_POSITION]) * (3.141516/180)); // Assign Y coordinate of object in respect to the bot	
    1be4:	f6 01       	movw	r30, r12
    1be6:	80 81       	ld	r24, Z
    1be8:	8f 70       	andi	r24, 0x0F	; 15
    1bea:	28 2e       	mov	r2, r24
    1bec:	31 2c       	mov	r3, r1
    1bee:	80 81       	ld	r24, Z
    1bf0:	8f 70       	andi	r24, 0x0F	; 15
    1bf2:	fe 01       	movw	r30, r28
    1bf4:	f8 9e       	mul	r15, r24
    1bf6:	e0 0d       	add	r30, r0
    1bf8:	f1 1d       	adc	r31, r1
    1bfa:	11 24       	eor	r1, r1
    1bfc:	ed 5a       	subi	r30, 0xAD	; 173
    1bfe:	ff 4f       	sbci	r31, 0xFF	; 255
    1c00:	40 80       	ld	r4, Z
    1c02:	51 80       	ldd	r5, Z+1	; 0x01
    1c04:	62 80       	ldd	r6, Z+2	; 0x02
    1c06:	73 80       	ldd	r7, Z+3	; 0x03
    1c08:	f6 01       	movw	r30, r12
    1c0a:	80 81       	ld	r24, Z
    1c0c:	8f 70       	andi	r24, 0x0F	; 15
    1c0e:	fe 01       	movw	r30, r28
    1c10:	f8 9e       	mul	r15, r24
    1c12:	e0 0d       	add	r30, r0
    1c14:	f1 1d       	adc	r31, r1
    1c16:	11 24       	eor	r1, r1
    1c18:	e5 5a       	subi	r30, 0xA5	; 165
    1c1a:	ff 4f       	sbci	r31, 0xFF	; 255
    1c1c:	80 80       	ld	r8, Z
    1c1e:	91 80       	ldd	r9, Z+1	; 0x01
    1c20:	a2 80       	ldd	r10, Z+2	; 0x02
    1c22:	b3 80       	ldd	r11, Z+3	; 0x03
    1c24:	20 e0       	ldi	r18, 0x00	; 0
    1c26:	30 e0       	ldi	r19, 0x00	; 0
    1c28:	44 eb       	ldi	r20, 0xB4	; 180
    1c2a:	52 e4       	ldi	r21, 0x42	; 66
    1c2c:	f8 01       	movw	r30, r16
    1c2e:	60 85       	ldd	r22, Z+8	; 0x08
    1c30:	71 85       	ldd	r23, Z+9	; 0x09
    1c32:	82 85       	ldd	r24, Z+10	; 0x0a
    1c34:	93 85       	ldd	r25, Z+11	; 0x0b
    1c36:	c8 d3       	rcall	.+1936   	; 0x23c8 <__subsf3>
    1c38:	a5 01       	movw	r20, r10
    1c3a:	94 01       	movw	r18, r8
    1c3c:	c6 d3       	rcall	.+1932   	; 0x23ca <__addsf3>
    1c3e:	20 e5       	ldi	r18, 0x50	; 80
    1c40:	39 ef       	ldi	r19, 0xF9	; 249
    1c42:	4e e8       	ldi	r20, 0x8E	; 142
    1c44:	5c e3       	ldi	r21, 0x3C	; 60
    1c46:	08 d6       	rcall	.+3088   	; 0x2858 <__mulsf3>
    1c48:	b6 d6       	rcall	.+3436   	; 0x29b6 <sin>
    1c4a:	9b 01       	movw	r18, r22
    1c4c:	ac 01       	movw	r20, r24
    1c4e:	c3 01       	movw	r24, r6
    1c50:	b2 01       	movw	r22, r4
    1c52:	02 d6       	rcall	.+3076   	; 0x2858 <__mulsf3>
    1c54:	f8 01       	movw	r30, r16
    1c56:	24 81       	ldd	r18, Z+4	; 0x04
    1c58:	35 81       	ldd	r19, Z+5	; 0x05
    1c5a:	46 81       	ldd	r20, Z+6	; 0x06
    1c5c:	57 81       	ldd	r21, Z+7	; 0x07
    1c5e:	b5 d3       	rcall	.+1898   	; 0x23ca <__addsf3>
    1c60:	f2 9c       	mul	r15, r2
    1c62:	f0 01       	movw	r30, r0
    1c64:	f3 9c       	mul	r15, r3
    1c66:	f0 0d       	add	r31, r0
    1c68:	11 24       	eor	r1, r1
    1c6a:	ec 0f       	add	r30, r28
    1c6c:	fd 1f       	adc	r31, r29
    1c6e:	ed 59       	subi	r30, 0x9D	; 157
    1c70:	ff 4f       	sbci	r31, 0xFF	; 255
    1c72:	60 83       	st	Z, r22
    1c74:	71 83       	std	Z+1, r23	; 0x01
    1c76:	82 83       	std	Z+2, r24	; 0x02
    1c78:	93 83       	std	Z+3, r25	; 0x03
			}
			obst->all_object_index++; // Move to next index
    1c7a:	fe 01       	movw	r30, r28
    1c7c:	ed 56       	subi	r30, 0x6D	; 109
    1c7e:	fc 4f       	sbci	r31, 0xFC	; 252
    1c80:	80 81       	ld	r24, Z
    1c82:	8f 5f       	subi	r24, 0xFF	; 255
    1c84:	98 2f       	mov	r25, r24
    1c86:	9f 70       	andi	r25, 0x0F	; 15
    1c88:	80 81       	ld	r24, Z
    1c8a:	80 7f       	andi	r24, 0xF0	; 240
    1c8c:	89 2b       	or	r24, r25
    1c8e:	80 83       	st	Z, r24
			obst->validation_level = 0; // Reset validation level
    1c90:	19 a6       	std	Y+41, r1	; 0x29
    1c92:	0b c0       	rjmp	.+22     	; 0x1caa <find_objs_IR+0x4ea>
		}
		else if (obst->object_detected == 1) { // Object is an anomaly. Reset last logged variables.
    1c94:	8c 85       	ldd	r24, Y+12	; 0x0c
    1c96:	80 ff       	sbrs	r24, 0
    1c98:	08 c0       	rjmp	.+16     	; 0x1caa <find_objs_IR+0x4ea>
			obst->validation_level = 0;
    1c9a:	19 a6       	std	Y+41, r1	; 0x29
			obst->start_angle_IR = 0;
    1c9c:	1a 86       	std	Y+10, r1	; 0x0a
			obst->start_dist_SONAR = 0;
    1c9e:	1d 8a       	std	Y+21, r1	; 0x15
			obst->object_detected = 0;
    1ca0:	8c 85       	ldd	r24, Y+12	; 0x0c
    1ca2:	8e 7f       	andi	r24, 0xFE	; 254
    1ca4:	8c 87       	std	Y+12, r24	; 0x0c
			obst->total_dist_IR = 0;
    1ca6:	19 86       	std	Y+9, r1	; 0x09
    1ca8:	18 86       	std	Y+8, r1	; 0x08
		}
	}
	obst->last_dist_IR = obst->cur_dist_IR; // Remember the last measured IR distance
    1caa:	8c 81       	ldd	r24, Y+4	; 0x04
    1cac:	9d 81       	ldd	r25, Y+5	; 0x05
    1cae:	9f 83       	std	Y+7, r25	; 0x07
    1cb0:	8e 83       	std	Y+6, r24	; 0x06
	obst->last_dist_SONAR = obst->cur_dist_SONAR; // Remember last measured SONAR distance
    1cb2:	8d 85       	ldd	r24, Y+13	; 0x0d
    1cb4:	9e 85       	ldd	r25, Y+14	; 0x0e
    1cb6:	af 85       	ldd	r26, Y+15	; 0x0f
    1cb8:	b8 89       	ldd	r27, Y+16	; 0x10
    1cba:	89 8b       	std	Y+17, r24	; 0x11
    1cbc:	9a 8b       	std	Y+18, r25	; 0x12
    1cbe:	ab 8b       	std	Y+19, r26	; 0x13
    1cc0:	bc 8b       	std	Y+20, r27	; 0x14
}
    1cc2:	df 91       	pop	r29
    1cc4:	cf 91       	pop	r28
    1cc6:	1f 91       	pop	r17
    1cc8:	0f 91       	pop	r16
    1cca:	ff 90       	pop	r15
    1ccc:	ef 90       	pop	r14
    1cce:	df 90       	pop	r13
    1cd0:	cf 90       	pop	r12
    1cd2:	bf 90       	pop	r11
    1cd4:	af 90       	pop	r10
    1cd6:	9f 90       	pop	r9
    1cd8:	8f 90       	pop	r8
    1cda:	7f 90       	pop	r7
    1cdc:	6f 90       	pop	r6
    1cde:	5f 90       	pop	r5
    1ce0:	4f 90       	pop	r4
    1ce2:	3f 90       	pop	r3
    1ce4:	2f 90       	pop	r2
    1ce6:	08 95       	ret

00001ce8 <sweep>:
	obst->obst_index = 0; // Amount of goal posts found. There are 4 posts total so 3 bits will suffice.*/
	
	// Note: Object array does not need to be initialized
}

void sweep(obstacle* obst, robot* bot) {
    1ce8:	8f 92       	push	r8
    1cea:	9f 92       	push	r9
    1cec:	af 92       	push	r10
    1cee:	bf 92       	push	r11
    1cf0:	cf 92       	push	r12
    1cf2:	df 92       	push	r13
    1cf4:	ef 92       	push	r14
    1cf6:	ff 92       	push	r15
    1cf8:	0f 93       	push	r16
    1cfa:	1f 93       	push	r17
    1cfc:	cf 93       	push	r28
    1cfe:	df 93       	push	r29
    1d00:	cd b7       	in	r28, 0x3d	; 61
    1d02:	de b7       	in	r29, 0x3e	; 62
    1d04:	e5 97       	sbiw	r28, 0x35	; 53
    1d06:	0f b6       	in	r0, 0x3f	; 63
    1d08:	f8 94       	cli
    1d0a:	de bf       	out	0x3e, r29	; 62
    1d0c:	0f be       	out	0x3f, r0	; 63
    1d0e:	cd bf       	out	0x3d, r28	; 61
    1d10:	8c 01       	movw	r16, r24
    1d12:	4b 01       	movw	r8, r22
	/* Clear PuTTY view and initialize columns */
	send_message("\f");
    1d14:	87 e3       	ldi	r24, 0x37	; 55
    1d16:	93 e0       	ldi	r25, 0x03	; 3
    1d18:	49 d3       	rcall	.+1682   	; 0x23ac <send_message>
	send_message("Degrees       IR Distance (cm)    Sonar Distance (cm)\r\n");
    1d1a:	89 e3       	ldi	r24, 0x39	; 57
    1d1c:	93 e0       	ldi	r25, 0x03	; 3
    1d1e:	46 d3       	rcall	.+1676   	; 0x23ac <send_message>
    1d20:	e1 2c       	mov	r14, r1
    1d22:	f1 2c       	mov	r15, r1
		send_pulse();                                // Ping the SONAR sensor
		obst->cur_dist_IR = read_IR_distance();      // Get current IR distance measurement
		obst->cur_dist_SONAR = read_PING_distance(); // Get current SONAR distance measurement
		
		/* Prepare buffer for transmission */
		sprintf(buffer, "%-3d             %-4d                 %-3.4f\r\n", i, obst->cur_dist_IR, obst->cur_dist_SONAR);
    1d24:	0f 2e       	mov	r0, r31
    1d26:	f1 e7       	ldi	r31, 0x71	; 113
    1d28:	af 2e       	mov	r10, r31
    1d2a:	f3 e0       	ldi	r31, 0x03	; 3
    1d2c:	bf 2e       	mov	r11, r31
    1d2e:	f0 2d       	mov	r31, r0
    1d30:	ce 01       	movw	r24, r28
    1d32:	01 96       	adiw	r24, 0x01	; 1
    1d34:	6c 01       	movw	r12, r24
	/* Data to be Sent to Putty */
	char buffer[53];
	
	/* Perform 180 degree scan. Collect distance measurements every 1 degree. */
	for (char i = 0; i <= 180; i++) {
		send_pulse();                                // Ping the SONAR sensor
    1d36:	4e d2       	rcall	.+1180   	; 0x21d4 <send_pulse>
		obst->cur_dist_IR = read_IR_distance();      // Get current IR distance measurement
    1d38:	1f d2       	rcall	.+1086   	; 0x2178 <read_IR_distance>
    1d3a:	f8 01       	movw	r30, r16
    1d3c:	95 83       	std	Z+5, r25	; 0x05
    1d3e:	84 83       	std	Z+4, r24	; 0x04
		obst->cur_dist_SONAR = read_PING_distance(); // Get current SONAR distance measurement
    1d40:	9f d2       	rcall	.+1342   	; 0x2280 <read_PING_distance>
    1d42:	f8 01       	movw	r30, r16
    1d44:	65 87       	std	Z+13, r22	; 0x0d
    1d46:	76 87       	std	Z+14, r23	; 0x0e
    1d48:	87 87       	std	Z+15, r24	; 0x0f
    1d4a:	90 8b       	std	Z+16, r25	; 0x10
		
		/* Prepare buffer for transmission */
		sprintf(buffer, "%-3d             %-4d                 %-3.4f\r\n", i, obst->cur_dist_IR, obst->cur_dist_SONAR);
    1d4c:	85 85       	ldd	r24, Z+13	; 0x0d
    1d4e:	96 85       	ldd	r25, Z+14	; 0x0e
    1d50:	a7 85       	ldd	r26, Z+15	; 0x0f
    1d52:	b0 89       	ldd	r27, Z+16	; 0x10
    1d54:	24 81       	ldd	r18, Z+4	; 0x04
    1d56:	35 81       	ldd	r19, Z+5	; 0x05
    1d58:	bf 93       	push	r27
    1d5a:	af 93       	push	r26
    1d5c:	9f 93       	push	r25
    1d5e:	8f 93       	push	r24
    1d60:	3f 93       	push	r19
    1d62:	2f 93       	push	r18
    1d64:	ff 92       	push	r15
    1d66:	ef 92       	push	r14
    1d68:	bf 92       	push	r11
    1d6a:	af 92       	push	r10
    1d6c:	df 92       	push	r13
    1d6e:	cf 92       	push	r12
    1d70:	0e 94 6e 1c 	call	0x38dc	; 0x38dc <sprintf>
		
		/* Send data to putty */
		send_message(buffer);
    1d74:	c6 01       	movw	r24, r12
    1d76:	1a d3       	rcall	.+1588   	; 0x23ac <send_message>
		
		/* Find Objects IR */
		find_objs_IR(obst, bot);
    1d78:	b4 01       	movw	r22, r8
    1d7a:	c8 01       	movw	r24, r16
    1d7c:	21 dd       	rcall	.-1470   	; 0x17c0 <find_objs_IR>
		
		obst->degrees++;            // Increment degree by 1
    1d7e:	f8 01       	movw	r30, r16
    1d80:	60 81       	ld	r22, Z
    1d82:	71 81       	ldd	r23, Z+1	; 0x01
    1d84:	82 81       	ldd	r24, Z+2	; 0x02
    1d86:	93 81       	ldd	r25, Z+3	; 0x03
    1d88:	20 e0       	ldi	r18, 0x00	; 0
    1d8a:	30 e0       	ldi	r19, 0x00	; 0
    1d8c:	40 e8       	ldi	r20, 0x80	; 128
    1d8e:	5f e3       	ldi	r21, 0x3F	; 63
    1d90:	1c d3       	rcall	.+1592   	; 0x23ca <__addsf3>
    1d92:	f8 01       	movw	r30, r16
    1d94:	60 83       	st	Z, r22
    1d96:	71 83       	std	Z+1, r23	; 0x01
    1d98:	82 83       	std	Z+2, r24	; 0x02
    1d9a:	93 83       	std	Z+3, r25	; 0x03
		move_servo(&obst->degrees); // Move servo into next position
    1d9c:	c8 01       	movw	r24, r16
    1d9e:	99 d2       	rcall	.+1330   	; 0x22d2 <move_servo>
		wait_ms(10);          // Wait for servo to position itself
    1da0:	8a e0       	ldi	r24, 0x0A	; 10
    1da2:	90 e0       	ldi	r25, 0x00	; 0
    1da4:	ae d1       	rcall	.+860    	; 0x2102 <wait_ms>
    1da6:	ff ef       	ldi	r31, 0xFF	; 255
    1da8:	ef 1a       	sub	r14, r31
    1daa:	ff 0a       	sbc	r15, r31
	
	/* Data to be Sent to Putty */
	char buffer[53];
	
	/* Perform 180 degree scan. Collect distance measurements every 1 degree. */
	for (char i = 0; i <= 180; i++) {
    1dac:	0f b6       	in	r0, 0x3f	; 63
    1dae:	f8 94       	cli
    1db0:	de bf       	out	0x3e, r29	; 62
    1db2:	0f be       	out	0x3f, r0	; 63
    1db4:	cd bf       	out	0x3d, r28	; 61
    1db6:	95 eb       	ldi	r25, 0xB5	; 181
    1db8:	e9 16       	cp	r14, r25
    1dba:	f1 04       	cpc	r15, r1
    1dbc:	09 f0       	breq	.+2      	; 0x1dc0 <sweep+0xd8>
    1dbe:	bb cf       	rjmp	.-138    	; 0x1d36 <sweep+0x4e>
	
	/* Analyze Found Objects */
	//analyze_found_objects(obst);
	
	/* Find Smallest Object */
	find_smallest_obj(obst);
    1dc0:	c8 01       	movw	r24, r16
    1dc2:	cb d9       	rcall	.-3178   	; 0x115a <find_smallest_obj>
	
	/* Find Closest Object */
	find_closest_obj(obst);
    1dc4:	c8 01       	movw	r24, r16
    1dc6:	64 da       	rcall	.-2872   	; 0x1290 <find_closest_obj>
}
    1dc8:	e5 96       	adiw	r28, 0x35	; 53
    1dca:	0f b6       	in	r0, 0x3f	; 63
    1dcc:	f8 94       	cli
    1dce:	de bf       	out	0x3e, r29	; 62
    1dd0:	0f be       	out	0x3f, r0	; 63
    1dd2:	cd bf       	out	0x3d, r28	; 61
    1dd4:	df 91       	pop	r29
    1dd6:	cf 91       	pop	r28
    1dd8:	1f 91       	pop	r17
    1dda:	0f 91       	pop	r16
    1ddc:	ff 90       	pop	r15
    1dde:	ef 90       	pop	r14
    1de0:	df 90       	pop	r13
    1de2:	cf 90       	pop	r12
    1de4:	bf 90       	pop	r11
    1de6:	af 90       	pop	r10
    1de8:	9f 90       	pop	r9
    1dea:	8f 90       	pop	r8
    1dec:	08 95       	ret

00001dee <oi_alloc>:
	PORTB |= 0x80; //Setting pullup on pin7
	
	do {
		charging_state = PINB >> 7;
	} while (charging_state == 0);
}
    1dee:	64 e3       	ldi	r22, 0x34	; 52
    1df0:	70 e0       	ldi	r23, 0x00	; 0
    1df2:	81 e0       	ldi	r24, 0x01	; 1
    1df4:	90 e0       	ldi	r25, 0x00	; 0
    1df6:	0c 94 fa 19 	jmp	0x33f4	; 0x33f4 <calloc>
    1dfa:	08 95       	ret

00001dfc <oi_byte_tx>:
    1dfc:	eb e9       	ldi	r30, 0x9B	; 155
    1dfe:	f0 e0       	ldi	r31, 0x00	; 0
    1e00:	90 81       	ld	r25, Z
    1e02:	95 ff       	sbrs	r25, 5
    1e04:	fd cf       	rjmp	.-6      	; 0x1e00 <oi_byte_tx+0x4>
    1e06:	80 93 9c 00 	sts	0x009C, r24
    1e0a:	08 95       	ret

00001e0c <oi_set_leds>:
    1e0c:	0f 93       	push	r16
    1e0e:	1f 93       	push	r17
    1e10:	cf 93       	push	r28
    1e12:	df 93       	push	r29
    1e14:	08 2f       	mov	r16, r24
    1e16:	c6 2f       	mov	r28, r22
    1e18:	14 2f       	mov	r17, r20
    1e1a:	d2 2f       	mov	r29, r18
    1e1c:	8b e8       	ldi	r24, 0x8B	; 139
    1e1e:	ee df       	rcall	.-36     	; 0x1dfc <oi_byte_tx>
    1e20:	88 e0       	ldi	r24, 0x08	; 8
    1e22:	c8 9f       	mul	r28, r24
    1e24:	f0 01       	movw	r30, r0
    1e26:	11 24       	eor	r1, r1
    1e28:	cc 23       	and	r28, r28
    1e2a:	29 f0       	breq	.+10     	; 0x1e36 <oi_set_leds+0x2a>
    1e2c:	91 e0       	ldi	r25, 0x01	; 1
    1e2e:	01 11       	cpse	r16, r1
    1e30:	01 c0       	rjmp	.+2      	; 0x1e34 <oi_set_leds+0x28>
    1e32:	90 e0       	ldi	r25, 0x00	; 0
    1e34:	e9 2f       	mov	r30, r25
    1e36:	8e 2f       	mov	r24, r30
    1e38:	e1 df       	rcall	.-62     	; 0x1dfc <oi_byte_tx>
    1e3a:	81 2f       	mov	r24, r17
    1e3c:	df df       	rcall	.-66     	; 0x1dfc <oi_byte_tx>
    1e3e:	8d 2f       	mov	r24, r29
    1e40:	dd df       	rcall	.-70     	; 0x1dfc <oi_byte_tx>
    1e42:	df 91       	pop	r29
    1e44:	cf 91       	pop	r28
    1e46:	1f 91       	pop	r17
    1e48:	0f 91       	pop	r16
    1e4a:	08 95       	ret

00001e4c <oi_set_wheels>:
    1e4c:	0f 93       	push	r16
    1e4e:	1f 93       	push	r17
    1e50:	cf 93       	push	r28
    1e52:	df 93       	push	r29
    1e54:	18 2f       	mov	r17, r24
    1e56:	09 2f       	mov	r16, r25
    1e58:	c6 2f       	mov	r28, r22
    1e5a:	d7 2f       	mov	r29, r23
    1e5c:	81 e9       	ldi	r24, 0x91	; 145
    1e5e:	ce df       	rcall	.-100    	; 0x1dfc <oi_byte_tx>
    1e60:	80 2f       	mov	r24, r16
    1e62:	cc df       	rcall	.-104    	; 0x1dfc <oi_byte_tx>
    1e64:	81 2f       	mov	r24, r17
    1e66:	ca df       	rcall	.-108    	; 0x1dfc <oi_byte_tx>
    1e68:	8d 2f       	mov	r24, r29
    1e6a:	c8 df       	rcall	.-112    	; 0x1dfc <oi_byte_tx>
    1e6c:	8c 2f       	mov	r24, r28
    1e6e:	c6 df       	rcall	.-116    	; 0x1dfc <oi_byte_tx>
    1e70:	df 91       	pop	r29
    1e72:	cf 91       	pop	r28
    1e74:	1f 91       	pop	r17
    1e76:	0f 91       	pop	r16
    1e78:	08 95       	ret

00001e7a <oi_load_song>:
    1e7a:	af 92       	push	r10
    1e7c:	bf 92       	push	r11
    1e7e:	cf 92       	push	r12
    1e80:	df 92       	push	r13
    1e82:	ef 92       	push	r14
    1e84:	ff 92       	push	r15
    1e86:	0f 93       	push	r16
    1e88:	1f 93       	push	r17
    1e8a:	cf 93       	push	r28
    1e8c:	df 93       	push	r29
    1e8e:	c8 2f       	mov	r28, r24
    1e90:	7b 01       	movw	r14, r22
    1e92:	6a 01       	movw	r12, r20
    1e94:	a2 2e       	mov	r10, r18
    1e96:	b3 2e       	mov	r11, r19
    1e98:	8c e8       	ldi	r24, 0x8C	; 140
    1e9a:	b0 df       	rcall	.-160    	; 0x1dfc <oi_byte_tx>
    1e9c:	8c 2f       	mov	r24, r28
    1e9e:	ae df       	rcall	.-164    	; 0x1dfc <oi_byte_tx>
    1ea0:	8e 2d       	mov	r24, r14
    1ea2:	ac df       	rcall	.-168    	; 0x1dfc <oi_byte_tx>
    1ea4:	1e 14       	cp	r1, r14
    1ea6:	1f 04       	cpc	r1, r15
    1ea8:	74 f4       	brge	.+28     	; 0x1ec6 <oi_load_song+0x4c>
    1eaa:	e6 01       	movw	r28, r12
    1eac:	0a 2d       	mov	r16, r10
    1eae:	1b 2d       	mov	r17, r11
    1eb0:	ec 0c       	add	r14, r12
    1eb2:	fd 1c       	adc	r15, r13
    1eb4:	89 91       	ld	r24, Y+
    1eb6:	a2 df       	rcall	.-188    	; 0x1dfc <oi_byte_tx>
    1eb8:	f8 01       	movw	r30, r16
    1eba:	81 91       	ld	r24, Z+
    1ebc:	8f 01       	movw	r16, r30
    1ebe:	9e df       	rcall	.-196    	; 0x1dfc <oi_byte_tx>
    1ec0:	ce 15       	cp	r28, r14
    1ec2:	df 05       	cpc	r29, r15
    1ec4:	b9 f7       	brne	.-18     	; 0x1eb4 <oi_load_song+0x3a>
    1ec6:	df 91       	pop	r29
    1ec8:	cf 91       	pop	r28
    1eca:	1f 91       	pop	r17
    1ecc:	0f 91       	pop	r16
    1ece:	ff 90       	pop	r15
    1ed0:	ef 90       	pop	r14
    1ed2:	df 90       	pop	r13
    1ed4:	cf 90       	pop	r12
    1ed6:	bf 90       	pop	r11
    1ed8:	af 90       	pop	r10
    1eda:	08 95       	ret

00001edc <oi_play_song>:
    1edc:	cf 93       	push	r28
    1ede:	c8 2f       	mov	r28, r24
    1ee0:	8d e8       	ldi	r24, 0x8D	; 141
    1ee2:	8c df       	rcall	.-232    	; 0x1dfc <oi_byte_tx>
    1ee4:	8c 2f       	mov	r24, r28
    1ee6:	8a df       	rcall	.-236    	; 0x1dfc <oi_byte_tx>
    1ee8:	cf 91       	pop	r28
    1eea:	08 95       	ret

00001eec <oi_byte_rx>:


// Receive a byte of data from the Create serial connection. Blocks until a byte is received.
unsigned char oi_byte_rx(void) {
	// wait until a byte is received (Receive Complete flag, RXC, is set)
	while (!(UCSR1A & (1 << RXC)));
    1eec:	eb e9       	ldi	r30, 0x9B	; 155
    1eee:	f0 e0       	ldi	r31, 0x00	; 0
    1ef0:	80 81       	ld	r24, Z
    1ef2:	88 23       	and	r24, r24
    1ef4:	ec f7       	brge	.-6      	; 0x1ef0 <oi_byte_rx+0x4>

	return UDR1;
    1ef6:	80 91 9c 00 	lds	r24, 0x009C
}
    1efa:	08 95       	ret

00001efc <oi_update>:
}



/// Update the Create. This will update all the sensor data and store it in the oi_t struct.
void oi_update(oi_t *self) {
    1efc:	ef 92       	push	r14
    1efe:	ff 92       	push	r15
    1f00:	0f 93       	push	r16
    1f02:	1f 93       	push	r17
    1f04:	cf 93       	push	r28
    1f06:	df 93       	push	r29
    1f08:	7c 01       	movw	r14, r24
	int i;

	// Clear the receive buffer
	while (UCSR1A & (1 << RXC)) 
    1f0a:	80 91 9b 00 	lds	r24, 0x009B
    1f0e:	88 23       	and	r24, r24
    1f10:	44 f4       	brge	.+16     	; 0x1f22 <oi_update+0x26>
		i = UDR1;
    1f12:	ac e9       	ldi	r26, 0x9C	; 156
    1f14:	b0 e0       	ldi	r27, 0x00	; 0
/// Update the Create. This will update all the sensor data and store it in the oi_t struct.
void oi_update(oi_t *self) {
	int i;

	// Clear the receive buffer
	while (UCSR1A & (1 << RXC)) 
    1f16:	eb e9       	ldi	r30, 0x9B	; 155
    1f18:	f0 e0       	ldi	r31, 0x00	; 0
		i = UDR1;
    1f1a:	8c 91       	ld	r24, X
/// Update the Create. This will update all the sensor data and store it in the oi_t struct.
void oi_update(oi_t *self) {
	int i;

	// Clear the receive buffer
	while (UCSR1A & (1 << RXC)) 
    1f1c:	80 81       	ld	r24, Z
    1f1e:	88 23       	and	r24, r24
    1f20:	e4 f3       	brlt	.-8      	; 0x1f1a <oi_update+0x1e>
		i = UDR1;

	// Query a list of sensor values
	oi_byte_tx(OI_OPCODE_SENSORS);
    1f22:	8e e8       	ldi	r24, 0x8E	; 142
    1f24:	6b df       	rcall	.-298    	; 0x1dfc <oi_byte_tx>
	// Send the sensor packet ID
	oi_byte_tx(OI_SENSOR_PACKET_GROUP6); 
    1f26:	86 e0       	ldi	r24, 0x06	; 6
    1f28:	69 df       	rcall	.-302    	; 0x1dfc <oi_byte_tx>
    1f2a:	e7 01       	movw	r28, r14
    1f2c:	87 01       	movw	r16, r14
    1f2e:	0c 5c       	subi	r16, 0xCC	; 204
    1f30:	1f 4f       	sbci	r17, 0xFF	; 255

	// Read all the sensor data
	char *sensor = (char *) self;
	for (i = 0; i < 52; i++) {
		// read each sensor byte
		*(sensor++) = oi_byte_rx();
    1f32:	dc df       	rcall	.-72     	; 0x1eec <oi_byte_rx>
    1f34:	89 93       	st	Y+, r24
	// Send the sensor packet ID
	oi_byte_tx(OI_SENSOR_PACKET_GROUP6); 

	// Read all the sensor data
	char *sensor = (char *) self;
	for (i = 0; i < 52; i++) {
    1f36:	c0 17       	cp	r28, r16
    1f38:	d1 07       	cpc	r29, r17
    1f3a:	d9 f7       	brne	.-10     	; 0x1f32 <oi_update+0x36>
	}
	
	sensor = (char *) self;
	
	// Fix byte ordering for multi-byte members of the struct
	self->distance                 = (sensor[12] << 8) + sensor[13];
    1f3c:	f7 01       	movw	r30, r14
    1f3e:	84 85       	ldd	r24, Z+12	; 0x0c
    1f40:	90 e0       	ldi	r25, 0x00	; 0
    1f42:	98 2f       	mov	r25, r24
    1f44:	88 27       	eor	r24, r24
    1f46:	25 85       	ldd	r18, Z+13	; 0x0d
    1f48:	82 0f       	add	r24, r18
    1f4a:	91 1d       	adc	r25, r1
    1f4c:	95 87       	std	Z+13, r25	; 0x0d
    1f4e:	84 87       	std	Z+12, r24	; 0x0c
	self->angle                    = (sensor[14] << 8) + sensor[15];
    1f50:	86 85       	ldd	r24, Z+14	; 0x0e
    1f52:	90 e0       	ldi	r25, 0x00	; 0
    1f54:	98 2f       	mov	r25, r24
    1f56:	88 27       	eor	r24, r24
    1f58:	27 85       	ldd	r18, Z+15	; 0x0f
    1f5a:	82 0f       	add	r24, r18
    1f5c:	91 1d       	adc	r25, r1
    1f5e:	97 87       	std	Z+15, r25	; 0x0f
    1f60:	86 87       	std	Z+14, r24	; 0x0e
	self->voltage                  = (sensor[17] << 8) + sensor[18];
    1f62:	81 89       	ldd	r24, Z+17	; 0x11
    1f64:	90 e0       	ldi	r25, 0x00	; 0
    1f66:	98 2f       	mov	r25, r24
    1f68:	88 27       	eor	r24, r24
    1f6a:	22 89       	ldd	r18, Z+18	; 0x12
    1f6c:	82 0f       	add	r24, r18
    1f6e:	91 1d       	adc	r25, r1
    1f70:	92 8b       	std	Z+18, r25	; 0x12
    1f72:	81 8b       	std	Z+17, r24	; 0x11
	self->current                  = (sensor[19] << 8) + sensor[20];
    1f74:	83 89       	ldd	r24, Z+19	; 0x13
    1f76:	90 e0       	ldi	r25, 0x00	; 0
    1f78:	98 2f       	mov	r25, r24
    1f7a:	88 27       	eor	r24, r24
    1f7c:	24 89       	ldd	r18, Z+20	; 0x14
    1f7e:	82 0f       	add	r24, r18
    1f80:	91 1d       	adc	r25, r1
    1f82:	94 8b       	std	Z+20, r25	; 0x14
    1f84:	83 8b       	std	Z+19, r24	; 0x13
	self->charge                   = (sensor[22] << 8) + sensor[23];
    1f86:	86 89       	ldd	r24, Z+22	; 0x16
    1f88:	90 e0       	ldi	r25, 0x00	; 0
    1f8a:	98 2f       	mov	r25, r24
    1f8c:	88 27       	eor	r24, r24
    1f8e:	27 89       	ldd	r18, Z+23	; 0x17
    1f90:	82 0f       	add	r24, r18
    1f92:	91 1d       	adc	r25, r1
    1f94:	97 8b       	std	Z+23, r25	; 0x17
    1f96:	86 8b       	std	Z+22, r24	; 0x16
	self->capacity                 = (sensor[24] << 8) + sensor[25];
    1f98:	80 8d       	ldd	r24, Z+24	; 0x18
    1f9a:	90 e0       	ldi	r25, 0x00	; 0
    1f9c:	98 2f       	mov	r25, r24
    1f9e:	88 27       	eor	r24, r24
    1fa0:	21 8d       	ldd	r18, Z+25	; 0x19
    1fa2:	82 0f       	add	r24, r18
    1fa4:	91 1d       	adc	r25, r1
    1fa6:	91 8f       	std	Z+25, r25	; 0x19
    1fa8:	80 8f       	std	Z+24, r24	; 0x18
	self->wall_signal              = (sensor[26] << 8) + sensor[27];
    1faa:	82 8d       	ldd	r24, Z+26	; 0x1a
    1fac:	90 e0       	ldi	r25, 0x00	; 0
    1fae:	98 2f       	mov	r25, r24
    1fb0:	88 27       	eor	r24, r24
    1fb2:	23 8d       	ldd	r18, Z+27	; 0x1b
    1fb4:	82 0f       	add	r24, r18
    1fb6:	91 1d       	adc	r25, r1
    1fb8:	93 8f       	std	Z+27, r25	; 0x1b
    1fba:	82 8f       	std	Z+26, r24	; 0x1a
	self->cliff_left_signal        = (sensor[28] << 8) + sensor[29];
    1fbc:	84 8d       	ldd	r24, Z+28	; 0x1c
    1fbe:	90 e0       	ldi	r25, 0x00	; 0
    1fc0:	98 2f       	mov	r25, r24
    1fc2:	88 27       	eor	r24, r24
    1fc4:	25 8d       	ldd	r18, Z+29	; 0x1d
    1fc6:	82 0f       	add	r24, r18
    1fc8:	91 1d       	adc	r25, r1
    1fca:	95 8f       	std	Z+29, r25	; 0x1d
    1fcc:	84 8f       	std	Z+28, r24	; 0x1c
	self->cliff_frontleft_signal   = (sensor[30] << 8) + sensor[31]; 
    1fce:	86 8d       	ldd	r24, Z+30	; 0x1e
    1fd0:	90 e0       	ldi	r25, 0x00	; 0
    1fd2:	98 2f       	mov	r25, r24
    1fd4:	88 27       	eor	r24, r24
    1fd6:	27 8d       	ldd	r18, Z+31	; 0x1f
    1fd8:	82 0f       	add	r24, r18
    1fda:	91 1d       	adc	r25, r1
    1fdc:	97 8f       	std	Z+31, r25	; 0x1f
    1fde:	86 8f       	std	Z+30, r24	; 0x1e
	self->cliff_frontright_signal  = (sensor[32] << 8) + sensor[33];
    1fe0:	80 a1       	ldd	r24, Z+32	; 0x20
    1fe2:	90 e0       	ldi	r25, 0x00	; 0
    1fe4:	98 2f       	mov	r25, r24
    1fe6:	88 27       	eor	r24, r24
    1fe8:	21 a1       	ldd	r18, Z+33	; 0x21
    1fea:	82 0f       	add	r24, r18
    1fec:	91 1d       	adc	r25, r1
    1fee:	91 a3       	std	Z+33, r25	; 0x21
    1ff0:	80 a3       	std	Z+32, r24	; 0x20
	self->cliff_right_signal       = (sensor[34] << 8) + sensor[35];
    1ff2:	82 a1       	ldd	r24, Z+34	; 0x22
    1ff4:	90 e0       	ldi	r25, 0x00	; 0
    1ff6:	98 2f       	mov	r25, r24
    1ff8:	88 27       	eor	r24, r24
    1ffa:	23 a1       	ldd	r18, Z+35	; 0x23
    1ffc:	82 0f       	add	r24, r18
    1ffe:	91 1d       	adc	r25, r1
    2000:	93 a3       	std	Z+35, r25	; 0x23
    2002:	82 a3       	std	Z+34, r24	; 0x22
	self->cargo_bay_voltage        = (sensor[41] << 8) + sensor[42];
    2004:	82 a5       	ldd	r24, Z+42	; 0x2a
    2006:	48 2f       	mov	r20, r24
    2008:	50 e0       	ldi	r21, 0x00	; 0
    200a:	21 a5       	ldd	r18, Z+41	; 0x29
    200c:	30 e0       	ldi	r19, 0x00	; 0
    200e:	32 2f       	mov	r19, r18
    2010:	22 27       	eor	r18, r18
    2012:	24 0f       	add	r18, r20
    2014:	35 1f       	adc	r19, r21
    2016:	36 a3       	std	Z+38, r19	; 0x26
    2018:	25 a3       	std	Z+37, r18	; 0x25
	self->requested_velocity       = (sensor[48] << 8) + sensor[42];
    201a:	90 a9       	ldd	r25, Z+48	; 0x30
    201c:	89 2f       	mov	r24, r25
    201e:	90 e0       	ldi	r25, 0x00	; 0
    2020:	98 2f       	mov	r25, r24
    2022:	88 27       	eor	r24, r24
    2024:	84 0f       	add	r24, r20
    2026:	95 1f       	adc	r25, r21
    2028:	95 a7       	std	Z+45, r25	; 0x2d
    202a:	84 a7       	std	Z+44, r24	; 0x2c
	self->requested_radius         = (sensor[50] << 8) + sensor[51];
    202c:	82 a9       	ldd	r24, Z+50	; 0x32
    202e:	90 e0       	ldi	r25, 0x00	; 0
    2030:	98 2f       	mov	r25, r24
    2032:	88 27       	eor	r24, r24
    2034:	23 a9       	ldd	r18, Z+51	; 0x33
    2036:	82 0f       	add	r24, r18
    2038:	91 1d       	adc	r25, r1
    203a:	97 a7       	std	Z+47, r25	; 0x2f
    203c:	86 a7       	std	Z+46, r24	; 0x2e
	self->requested_right_velocity = (sensor[52] << 8) + sensor[53];
    203e:	84 a9       	ldd	r24, Z+52	; 0x34
    2040:	90 e0       	ldi	r25, 0x00	; 0
    2042:	98 2f       	mov	r25, r24
    2044:	88 27       	eor	r24, r24
    2046:	25 a9       	ldd	r18, Z+53	; 0x35
    2048:	82 0f       	add	r24, r18
    204a:	91 1d       	adc	r25, r1
    204c:	91 ab       	std	Z+49, r25	; 0x31
    204e:	80 ab       	std	Z+48, r24	; 0x30
	self->requested_left_velocity  = (sensor[54] << 8) + sensor[55];
    2050:	86 a9       	ldd	r24, Z+54	; 0x36
    2052:	90 e0       	ldi	r25, 0x00	; 0
    2054:	98 2f       	mov	r25, r24
    2056:	88 27       	eor	r24, r24
    2058:	27 a9       	ldd	r18, Z+55	; 0x37
    205a:	82 0f       	add	r24, r18
    205c:	91 1d       	adc	r25, r1
    205e:	93 ab       	std	Z+51, r25	; 0x33
    2060:	82 ab       	std	Z+50, r24	; 0x32
	
	wait_ms(35); // reduces USART errors that occur when continuously transmitting/receiving
    2062:	83 e2       	ldi	r24, 0x23	; 35
    2064:	90 e0       	ldi	r25, 0x00	; 0
    2066:	4d d0       	rcall	.+154    	; 0x2102 <wait_ms>
}
    2068:	df 91       	pop	r29
    206a:	cf 91       	pop	r28
    206c:	1f 91       	pop	r17
    206e:	0f 91       	pop	r16
    2070:	ff 90       	pop	r15
    2072:	ef 90       	pop	r14
    2074:	08 95       	ret

00002076 <oi_init>:
void oi_free(oi_t *self) {
	free(self);
}

/// Initialize the Create
void oi_init(oi_t *self) {
    2076:	0f 93       	push	r16
    2078:	1f 93       	push	r17
    207a:	cf 93       	push	r28
    207c:	df 93       	push	r29
    207e:	8c 01       	movw	r16, r24
	// Setup USART1 to communicate to the iRobot Create using serial (baud = 57600)
	UBRR1L = 16; // UBRR = (FOSC/16/BAUD-1);
    2080:	c9 e9       	ldi	r28, 0x99	; 153
    2082:	d0 e0       	ldi	r29, 0x00	; 0
    2084:	80 e1       	ldi	r24, 0x10	; 16
    2086:	88 83       	st	Y, r24
	UCSR1B = (1 << RXEN) | (1 << TXEN);
    2088:	88 e1       	ldi	r24, 0x18	; 24
    208a:	80 93 9a 00 	sts	0x009A, r24
	UCSR1C = (3 << UCSZ10);
    208e:	86 e0       	ldi	r24, 0x06	; 6
    2090:	80 93 9d 00 	sts	0x009D, r24

	// Starts the SCI. Must be sent first
	oi_byte_tx(OI_OPCODE_START);
    2094:	80 e8       	ldi	r24, 0x80	; 128
    2096:	b2 de       	rcall	.-668    	; 0x1dfc <oi_byte_tx>
	oi_byte_tx(OI_OPCODE_BAUD);
    2098:	81 e8       	ldi	r24, 0x81	; 129
    209a:	b0 de       	rcall	.-672    	; 0x1dfc <oi_byte_tx>

	oi_byte_tx(8); // baud code for 28800
    209c:	88 e0       	ldi	r24, 0x08	; 8
    209e:	ae de       	rcall	.-676    	; 0x1dfc <oi_byte_tx>
	wait_ms(100);
    20a0:	84 e6       	ldi	r24, 0x64	; 100
    20a2:	90 e0       	ldi	r25, 0x00	; 0
    20a4:	2e d0       	rcall	.+92     	; 0x2102 <wait_ms>
	
	// Set the baud rate on the Cerebot II to match the Create's baud
	UBRR1L = 33; // UBRR = (FOSC/16/BAUD-1);
    20a6:	81 e2       	ldi	r24, 0x21	; 33
    20a8:	88 83       	st	Y, r24

	// Use Full mode, unrestricted control
	oi_byte_tx(OI_OPCODE_FULL);
    20aa:	84 e8       	ldi	r24, 0x84	; 132
    20ac:	a7 de       	rcall	.-690    	; 0x1dfc <oi_byte_tx>
	oi_set_leds(1, 1, 7, 255);
    20ae:	2f ef       	ldi	r18, 0xFF	; 255
    20b0:	47 e0       	ldi	r20, 0x07	; 7
    20b2:	61 e0       	ldi	r22, 0x01	; 1
    20b4:	81 e0       	ldi	r24, 0x01	; 1
    20b6:	aa de       	rcall	.-684    	; 0x1e0c <oi_set_leds>
	
	oi_update(self);
    20b8:	c8 01       	movw	r24, r16
    20ba:	20 df       	rcall	.-448    	; 0x1efc <oi_update>
	oi_update(self); // call twice to clear distance/angle
    20bc:	c8 01       	movw	r24, r16
    20be:	1e df       	rcall	.-452    	; 0x1efc <oi_update>
}
    20c0:	df 91       	pop	r29
    20c2:	cf 91       	pop	r28
    20c4:	1f 91       	pop	r17
    20c6:	0f 91       	pop	r16
    20c8:	08 95       	ret

000020ca <timer2_start>:
}


// Start timer2
void timer2_start(char unit) {
	timer2_tick=0;
    20ca:	10 92 a7 03 	sts	0x03A7, r1
    20ce:	10 92 a6 03 	sts	0x03A6, r1
	if ( unit == 0 ) { 		//unit = 0 is for slow 
    20d2:	81 11       	cpse	r24, r1
    20d4:	06 c0       	rjmp	.+12     	; 0x20e2 <timer2_start+0x18>
        TCCR2=0b00001011;	//WGM:CTC, COM:OC2 disconnected,pre_scaler = 64
    20d6:	8b e0       	ldi	r24, 0x0B	; 11
    20d8:	85 bd       	out	0x25, r24	; 37
        TIMSK|=0b10000000;	//Enabling O.C. Interrupt for Timer2
    20da:	87 b7       	in	r24, 0x37	; 55
    20dc:	80 68       	ori	r24, 0x80	; 128
    20de:	87 bf       	out	0x37, r24	; 55
    20e0:	07 c0       	rjmp	.+14     	; 0x20f0 <timer2_start+0x26>
	}
	if (unit == 1) { 		//unit = 1 is for fast
    20e2:	81 30       	cpi	r24, 0x01	; 1
    20e4:	29 f4       	brne	.+10     	; 0x20f0 <timer2_start+0x26>
        TCCR2=0b00001001;	//WGM:CTC, COM:OC2 disconnected,pre_scaler = 1
    20e6:	89 e0       	ldi	r24, 0x09	; 9
    20e8:	85 bd       	out	0x25, r24	; 37
        TIMSK|=0b10000000;	//Enabling O.C. Interrupt for Timer2
    20ea:	87 b7       	in	r24, 0x37	; 55
    20ec:	80 68       	ori	r24, 0x80	; 128
    20ee:	87 bf       	out	0x37, r24	; 55
	}
	sei();
    20f0:	78 94       	sei
    20f2:	08 95       	ret

000020f4 <timer2_stop>:
}


// Stop timer2
void timer2_stop() {
	TIMSK&=~0b10000000;		//Disabling O.C. Interrupt for Timer2
    20f4:	87 b7       	in	r24, 0x37	; 55
    20f6:	8f 77       	andi	r24, 0x7F	; 127
    20f8:	87 bf       	out	0x37, r24	; 55
	TCCR2&=0b01111111;		//Clearing O.C. settings
    20fa:	85 b5       	in	r24, 0x25	; 37
    20fc:	8f 77       	andi	r24, 0x7F	; 127
    20fe:	85 bd       	out	0x25, r24	; 37
    2100:	08 95       	ret

00002102 <wait_ms>:
void timer2_start(char unit);
void timer2_stop();


/// Blocks for a specified number of milliseconds
void wait_ms(unsigned int time_val) {
    2102:	cf 93       	push	r28
    2104:	df 93       	push	r29
    2106:	ec 01       	movw	r28, r24
	//Seting OC value for time requested
	OCR2=250; 				//Clock is 16 MHz. At a prescaler of 64, 250 timer ticks = 1ms.
    2108:	8a ef       	ldi	r24, 0xFA	; 250
    210a:	83 bd       	out	0x23, r24	; 35
	timer2_tick=0;
    210c:	10 92 a7 03 	sts	0x03A7, r1
    2110:	10 92 a6 03 	sts	0x03A6, r1
	timer2_start(0);
    2114:	80 e0       	ldi	r24, 0x00	; 0
    2116:	d9 df       	rcall	.-78     	; 0x20ca <timer2_start>

	//Waiting for time
	while(timer2_tick < time_val);
    2118:	20 91 a6 03 	lds	r18, 0x03A6
    211c:	30 91 a7 03 	lds	r19, 0x03A7
    2120:	2c 17       	cp	r18, r28
    2122:	3d 07       	cpc	r19, r29
    2124:	c8 f3       	brcs	.-14     	; 0x2118 <wait_ms+0x16>

	timer2_stop();
    2126:	e6 df       	rcall	.-52     	; 0x20f4 <timer2_stop>
}
    2128:	df 91       	pop	r29
    212a:	cf 91       	pop	r28
    212c:	08 95       	ret

0000212e <__vector_9>:
	TCCR2&=0b01111111;		//Clearing O.C. settings
}


// Interrupt handler (runs every 1 ms)
ISR (TIMER2_COMP_vect) {
    212e:	1f 92       	push	r1
    2130:	0f 92       	push	r0
    2132:	0f b6       	in	r0, 0x3f	; 63
    2134:	0f 92       	push	r0
    2136:	11 24       	eor	r1, r1
    2138:	8f 93       	push	r24
    213a:	9f 93       	push	r25
	timer2_tick++;
    213c:	80 91 a6 03 	lds	r24, 0x03A6
    2140:	90 91 a7 03 	lds	r25, 0x03A7
    2144:	01 96       	adiw	r24, 0x01	; 1
    2146:	90 93 a7 03 	sts	0x03A7, r25
    214a:	80 93 a6 03 	sts	0x03A6, r24
}
    214e:	9f 91       	pop	r25
    2150:	8f 91       	pop	r24
    2152:	0f 90       	pop	r0
    2154:	0f be       	out	0x3f, r0	; 63
    2156:	0f 90       	pop	r0
    2158:	1f 90       	pop	r1
    215a:	18 95       	reti

0000215c <ADC_init>:
/* IR Program                                                           */
/************************************************************************/
void ADC_init()
{
	// REFS=11, ADLAR= 0, MUX don't care
	ADMUX |= (3<<REFS0) | (2<<MUX0); //(REFS1) | _BV(REFS0);
    215c:	87 b1       	in	r24, 0x07	; 7
    215e:	82 6c       	ori	r24, 0xC2	; 194
    2160:	87 b9       	out	0x07, r24	; 7
	
	// ADEN=1, ADFR=0, ADIE=0, ADPS=111, others don't care.
	//See page 246 of user guide
	ADCSRA |= (1<<ADEN) | (7<<ADPS0);
    2162:	86 b1       	in	r24, 0x06	; 6
    2164:	87 68       	ori	r24, 0x87	; 135
    2166:	86 b9       	out	0x06, r24	; 6
    2168:	08 95       	ret

0000216a <read_ADC>:
}

unsigned int read_ADC()
{
	ADMUX |= (PF2 & 0x1F);
    216a:	39 9a       	sbi	0x07, 1	; 7
	//Sets ADSC bit of ADCSRA, enabling ADC
	ADCSRA |= (1<<ADSC);
    216c:	36 9a       	sbi	0x06, 6	; 6
	//Waits for conversion to be done.
	while(ADCSRA & (1<<ADFR)){}
    216e:	35 99       	sbic	0x06, 5	; 6
    2170:	fe cf       	rjmp	.-4      	; 0x216e <read_ADC+0x4>
	//Sets conversion to temp var.
	return ADC;
    2172:	84 b1       	in	r24, 0x04	; 4
    2174:	95 b1       	in	r25, 0x05	; 5
}
    2176:	08 95       	ret

00002178 <read_IR_distance>:

int read_IR_distance() {
    2178:	0f 93       	push	r16
    217a:	1f 93       	push	r17
    217c:	cf 93       	push	r28
    217e:	df 93       	push	r29
    2180:	c5 e0       	ldi	r28, 0x05	; 5
    2182:	d0 e0       	ldi	r29, 0x00	; 0
	int sum = 0;
    2184:	00 e0       	ldi	r16, 0x00	; 0
    2186:	10 e0       	ldi	r17, 0x00	; 0
	for (int i = 0; i < 5; i++)
	sum += read_ADC();
    2188:	f0 df       	rcall	.-32     	; 0x216a <read_ADC>
    218a:	08 0f       	add	r16, r24
    218c:	19 1f       	adc	r17, r25
    218e:	21 97       	sbiw	r28, 0x01	; 1
	return ADC;
}

int read_IR_distance() {
	int sum = 0;
	for (int i = 0; i < 5; i++)
    2190:	d9 f7       	brne	.-10     	; 0x2188 <read_IR_distance+0x10>
	sum += read_ADC();
	
	int quantVal = sum/5;
    2192:	c8 01       	movw	r24, r16
    2194:	65 e0       	ldi	r22, 0x05	; 5
    2196:	70 e0       	ldi	r23, 0x00	; 0
    2198:	0e 94 d3 19 	call	0x33a6	; 0x33a6 <__divmodhi4>
	
	return (pow(quantVal,-1.171) * 31427);
    219c:	07 2e       	mov	r0, r23
    219e:	00 0c       	add	r0, r0
    21a0:	88 0b       	sbc	r24, r24
    21a2:	99 0b       	sbc	r25, r25
    21a4:	40 d2       	rcall	.+1152   	; 0x2626 <__floatsisf>
    21a6:	24 e5       	ldi	r18, 0x54	; 84
    21a8:	33 ee       	ldi	r19, 0xE3	; 227
    21aa:	45 e9       	ldi	r20, 0x95	; 149
    21ac:	5f eb       	ldi	r21, 0xBF	; 191
    21ae:	b7 d3       	rcall	.+1902   	; 0x291e <pow>
    21b0:	20 e0       	ldi	r18, 0x00	; 0
    21b2:	36 e8       	ldi	r19, 0x86	; 134
    21b4:	45 ef       	ldi	r20, 0xF5	; 245
    21b6:	56 e4       	ldi	r21, 0x46	; 70
    21b8:	4f d3       	rcall	.+1694   	; 0x2858 <__mulsf3>
    21ba:	02 d2       	rcall	.+1028   	; 0x25c0 <__fixsfsi>
}
    21bc:	cb 01       	movw	r24, r22
    21be:	df 91       	pop	r29
    21c0:	cf 91       	pop	r28
    21c2:	1f 91       	pop	r17
    21c4:	0f 91       	pop	r16
    21c6:	08 95       	ret

000021c8 <ping_timer_init>:
volatile unsigned fall = 0;
volatile unsigned signal = 0;

void ping_timer_init()
{
	TCCR1A = 0x00;		// WGM1[1:0]=00
    21c8:	1f bc       	out	0x2f, r1	; 47
	TCCR1B = 0b11000011; // Noise canceller ON, falling edge is trigger, prescaler of 64
    21ca:	83 ec       	ldi	r24, 0xC3	; 195
    21cc:	8e bd       	out	0x2e, r24	; 46
	TIMSK = 1 << TICIE1; // Enable TICIE1
    21ce:	80 e2       	ldi	r24, 0x20	; 32
    21d0:	87 bf       	out	0x37, r24	; 55
    21d2:	08 95       	ret

000021d4 <send_pulse>:
}

void send_pulse()
{
	TIMSK &= ~0b00100100;
    21d4:	87 b7       	in	r24, 0x37	; 55
    21d6:	8b 7d       	andi	r24, 0xDB	; 219
    21d8:	87 bf       	out	0x37, r24	; 55
	DDRD |= 0x10;
    21da:	8c 9a       	sbi	0x11, 4	; 17
	PORTD |= 0x10;
    21dc:	94 9a       	sbi	0x12, 4	; 18
	wait_ms(1);
    21de:	81 e0       	ldi	r24, 0x01	; 1
    21e0:	90 e0       	ldi	r25, 0x00	; 0
    21e2:	8f df       	rcall	.-226    	; 0x2102 <wait_ms>
	PORTD &= 0xEF;
    21e4:	94 98       	cbi	0x12, 4	; 18
	DDRD &= 0xEF;
    21e6:	8c 98       	cbi	0x11, 4	; 17
	
	TIFR |= (1 << ICF1); // Clear flag
    21e8:	86 b7       	in	r24, 0x36	; 54
    21ea:	80 62       	ori	r24, 0x20	; 32
    21ec:	86 bf       	out	0x36, r24	; 54
	
	TIMSK |= 0b00100000;
    21ee:	87 b7       	in	r24, 0x37	; 55
    21f0:	80 62       	ori	r24, 0x20	; 32
    21f2:	87 bf       	out	0x37, r24	; 55
    21f4:	08 95       	ret

000021f6 <__vector_11>:
}

/* Input Capture Event for Timer1 */
ISR(TIMER1_CAPT_vect)
{
    21f6:	1f 92       	push	r1
    21f8:	0f 92       	push	r0
    21fa:	0f b6       	in	r0, 0x3f	; 63
    21fc:	0f 92       	push	r0
    21fe:	11 24       	eor	r1, r1
    2200:	2f 93       	push	r18
    2202:	3f 93       	push	r19
    2204:	8f 93       	push	r24
    2206:	9f 93       	push	r25
	if (rise == 0)
    2208:	80 91 a4 03 	lds	r24, 0x03A4
    220c:	90 91 a5 03 	lds	r25, 0x03A5
    2210:	89 2b       	or	r24, r25
    2212:	39 f4       	brne	.+14     	; 0x2222 <__vector_11+0x2c>
	{
		rise = ICR1;
    2214:	86 b5       	in	r24, 0x26	; 38
    2216:	97 b5       	in	r25, 0x27	; 39
    2218:	90 93 a5 03 	sts	0x03A5, r25
    221c:	80 93 a4 03 	sts	0x03A4, r24
    2220:	22 c0       	rjmp	.+68     	; 0x2266 <__vector_11+0x70>
		
	}
	else if (fall == 0)
    2222:	80 91 a2 03 	lds	r24, 0x03A2
    2226:	90 91 a3 03 	lds	r25, 0x03A3
    222a:	89 2b       	or	r24, r25
    222c:	e1 f4       	brne	.+56     	; 0x2266 <__vector_11+0x70>
	{
		fall = ICR1;
    222e:	86 b5       	in	r24, 0x26	; 38
    2230:	97 b5       	in	r25, 0x27	; 39
    2232:	90 93 a3 03 	sts	0x03A3, r25
    2236:	80 93 a2 03 	sts	0x03A2, r24
		signal = fall - rise;
    223a:	80 91 a2 03 	lds	r24, 0x03A2
    223e:	90 91 a3 03 	lds	r25, 0x03A3
    2242:	20 91 a4 03 	lds	r18, 0x03A4
    2246:	30 91 a5 03 	lds	r19, 0x03A5
    224a:	82 1b       	sub	r24, r18
    224c:	93 0b       	sbc	r25, r19
    224e:	90 93 a1 03 	sts	0x03A1, r25
    2252:	80 93 a0 03 	sts	0x03A0, r24
		
		rise = 0;
    2256:	10 92 a5 03 	sts	0x03A5, r1
    225a:	10 92 a4 03 	sts	0x03A4, r1
		fall = 0;
    225e:	10 92 a3 03 	sts	0x03A3, r1
    2262:	10 92 a2 03 	sts	0x03A2, r1
	}
	
	// Rising or falling?
	TCCR1B ^= 0b01000000;
    2266:	9e b5       	in	r25, 0x2e	; 46
    2268:	80 e4       	ldi	r24, 0x40	; 64
    226a:	89 27       	eor	r24, r25
    226c:	8e bd       	out	0x2e, r24	; 46
}
    226e:	9f 91       	pop	r25
    2270:	8f 91       	pop	r24
    2272:	3f 91       	pop	r19
    2274:	2f 91       	pop	r18
    2276:	0f 90       	pop	r0
    2278:	0f be       	out	0x3f, r0	; 63
    227a:	0f 90       	pop	r0
    227c:	1f 90       	pop	r1
    227e:	18 95       	reti

00002280 <read_PING_distance>:

float read_PING_distance() {
	return ((signal/(16000000.0/64.0))*(34300.0/2.0)); // (delta/(Frequency/pre-scaler))*(speed of sound/2)
    2280:	60 91 a0 03 	lds	r22, 0x03A0
    2284:	70 91 a1 03 	lds	r23, 0x03A1
    2288:	80 e0       	ldi	r24, 0x00	; 0
    228a:	90 e0       	ldi	r25, 0x00	; 0
    228c:	ca d1       	rcall	.+916    	; 0x2622 <__floatunsisf>
    228e:	20 e0       	ldi	r18, 0x00	; 0
    2290:	34 e2       	ldi	r19, 0x24	; 36
    2292:	44 e7       	ldi	r20, 0x74	; 116
    2294:	58 e4       	ldi	r21, 0x48	; 72
    2296:	2c d1       	rcall	.+600    	; 0x24f0 <__divsf3>
    2298:	20 e0       	ldi	r18, 0x00	; 0
    229a:	3c ef       	ldi	r19, 0xFC	; 252
    229c:	45 e8       	ldi	r20, 0x85	; 133
    229e:	56 e4       	ldi	r21, 0x46	; 70
    22a0:	db c2       	rjmp	.+1462   	; 0x2858 <__mulsf3>
}
    22a2:	08 95       	ret

000022a4 <servo_timer_init>:
#define ZERO ((16000000/(8 * 1000)) * 1) * 0.45         // 1 ms pulse - clockwise far end; ((16000000/(8 * 1000)) * 1ms) * .5075 (0.4 for bot 3; 0.45 for bot 17) calibration
#define NINTY ((16000000/(8 * 1000)) * 1.5) * 0.8833      // 1.5 ms pulse - center position; ((16000000/(8 * 1000)) * 1.5ms) * .9397 (0.816666 for bot 3; 0.8833 for bot 17) calibration
#define ONE_EIGHTY ((16000000/(8 * 1000)) * 2) * 1.0875  // 2 ms pulse - counterclockwise far end; ((16000000/(8 * 1000)) * 2ms) * 1.1362 (1.0375 for bot 3; 1.0875 for bot 17) calibration

void servo_timer_init() {
	TCCR3A = 0b00100011; //set COM and WGM
    22a4:	83 e2       	ldi	r24, 0x23	; 35
    22a6:	80 93 8b 00 	sts	0x008B, r24
	TCCR3B = 0b00011010; //set WGM and CS
    22aa:	8a e1       	ldi	r24, 0x1A	; 26
    22ac:	80 93 8a 00 	sts	0x008A, r24
	OCR3A = TOP;
    22b0:	88 ef       	ldi	r24, 0xF8	; 248
    22b2:	97 ea       	ldi	r25, 0xA7	; 167
    22b4:	90 93 87 00 	sts	0x0087, r25
    22b8:	80 93 86 00 	sts	0x0086, r24
	
	DDRE |= _BV(4); // Set PE4 as output
    22bc:	14 9a       	sbi	0x02, 4	; 2
	
	OCR3B = NINTY; // Initialize servo to center
    22be:	89 e5       	ldi	r24, 0x59	; 89
    22c0:	9a e0       	ldi	r25, 0x0A	; 10
    22c2:	90 93 85 00 	sts	0x0085, r25
    22c6:	80 93 84 00 	sts	0x0084, r24
	wait_ms(500); // Wait for Servo to get into position
    22ca:	84 ef       	ldi	r24, 0xF4	; 244
    22cc:	91 e0       	ldi	r25, 0x01	; 1
    22ce:	19 cf       	rjmp	.-462    	; 0x2102 <wait_ms>
    22d0:	08 95       	ret

000022d2 <move_servo>:
}

void move_servo(volatile float* degrees)
{
    22d2:	cf 93       	push	r28
    22d4:	df 93       	push	r29
    22d6:	ec 01       	movw	r28, r24
	if (*degrees <= 180 && *degrees >= 0) // Prevent servo from going out of range
    22d8:	68 81       	ld	r22, Y
    22da:	79 81       	ldd	r23, Y+1	; 0x01
    22dc:	8a 81       	ldd	r24, Y+2	; 0x02
    22de:	9b 81       	ldd	r25, Y+3	; 0x03
    22e0:	20 e0       	ldi	r18, 0x00	; 0
    22e2:	30 e0       	ldi	r19, 0x00	; 0
    22e4:	44 e3       	ldi	r20, 0x34	; 52
    22e6:	53 e4       	ldi	r21, 0x43	; 67
    22e8:	fc d0       	rcall	.+504    	; 0x24e2 <__cmpsf2>
    22ea:	18 16       	cp	r1, r24
    22ec:	3c f1       	brlt	.+78     	; 0x233c <move_servo+0x6a>
    22ee:	68 81       	ld	r22, Y
    22f0:	79 81       	ldd	r23, Y+1	; 0x01
    22f2:	8a 81       	ldd	r24, Y+2	; 0x02
    22f4:	9b 81       	ldd	r25, Y+3	; 0x03
    22f6:	20 e0       	ldi	r18, 0x00	; 0
    22f8:	30 e0       	ldi	r19, 0x00	; 0
    22fa:	a9 01       	movw	r20, r18
    22fc:	a2 d2       	rcall	.+1348   	; 0x2842 <__gesf2>
    22fe:	88 23       	and	r24, r24
    2300:	ec f0       	brlt	.+58     	; 0x233c <move_servo+0x6a>
	OCR3B = (ZERO + (*degrees/180) * (ONE_EIGHTY - ZERO)) - 1; // Convert values to degrees and store as pulse width
    2302:	68 81       	ld	r22, Y
    2304:	79 81       	ldd	r23, Y+1	; 0x01
    2306:	8a 81       	ldd	r24, Y+2	; 0x02
    2308:	9b 81       	ldd	r25, Y+3	; 0x03
    230a:	20 e0       	ldi	r18, 0x00	; 0
    230c:	30 e0       	ldi	r19, 0x00	; 0
    230e:	44 e3       	ldi	r20, 0x34	; 52
    2310:	53 e4       	ldi	r21, 0x43	; 67
    2312:	ee d0       	rcall	.+476    	; 0x24f0 <__divsf3>
    2314:	20 e0       	ldi	r18, 0x00	; 0
    2316:	30 ea       	ldi	r19, 0xA0	; 160
    2318:	47 e5       	ldi	r20, 0x57	; 87
    231a:	55 e4       	ldi	r21, 0x45	; 69
    231c:	9d d2       	rcall	.+1338   	; 0x2858 <__mulsf3>
    231e:	20 e0       	ldi	r18, 0x00	; 0
    2320:	30 e0       	ldi	r19, 0x00	; 0
    2322:	41 e6       	ldi	r20, 0x61	; 97
    2324:	54 e4       	ldi	r21, 0x44	; 68
    2326:	51 d0       	rcall	.+162    	; 0x23ca <__addsf3>
    2328:	20 e0       	ldi	r18, 0x00	; 0
    232a:	30 e0       	ldi	r19, 0x00	; 0
    232c:	40 e8       	ldi	r20, 0x80	; 128
    232e:	5f e3       	ldi	r21, 0x3F	; 63
    2330:	4b d0       	rcall	.+150    	; 0x23c8 <__subsf3>
    2332:	4b d1       	rcall	.+662    	; 0x25ca <__fixunssfsi>
    2334:	70 93 85 00 	sts	0x0085, r23
    2338:	60 93 84 00 	sts	0x0084, r22
	
	// Prevent angle from going out of bounds
	if (*degrees > 180)
    233c:	68 81       	ld	r22, Y
    233e:	79 81       	ldd	r23, Y+1	; 0x01
    2340:	8a 81       	ldd	r24, Y+2	; 0x02
    2342:	9b 81       	ldd	r25, Y+3	; 0x03
    2344:	20 e0       	ldi	r18, 0x00	; 0
    2346:	30 e0       	ldi	r19, 0x00	; 0
    2348:	44 e3       	ldi	r20, 0x34	; 52
    234a:	53 e4       	ldi	r21, 0x43	; 67
    234c:	7a d2       	rcall	.+1268   	; 0x2842 <__gesf2>
    234e:	18 16       	cp	r1, r24
    2350:	4c f4       	brge	.+18     	; 0x2364 <move_servo+0x92>
	*degrees = 180;
    2352:	80 e0       	ldi	r24, 0x00	; 0
    2354:	90 e0       	ldi	r25, 0x00	; 0
    2356:	a4 e3       	ldi	r26, 0x34	; 52
    2358:	b3 e4       	ldi	r27, 0x43	; 67
    235a:	88 83       	st	Y, r24
    235c:	99 83       	std	Y+1, r25	; 0x01
    235e:	aa 83       	std	Y+2, r26	; 0x02
    2360:	bb 83       	std	Y+3, r27	; 0x03
    2362:	0e c0       	rjmp	.+28     	; 0x2380 <move_servo+0xae>
	else if (*degrees < 0)
    2364:	68 81       	ld	r22, Y
    2366:	79 81       	ldd	r23, Y+1	; 0x01
    2368:	8a 81       	ldd	r24, Y+2	; 0x02
    236a:	9b 81       	ldd	r25, Y+3	; 0x03
    236c:	20 e0       	ldi	r18, 0x00	; 0
    236e:	30 e0       	ldi	r19, 0x00	; 0
    2370:	a9 01       	movw	r20, r18
    2372:	b7 d0       	rcall	.+366    	; 0x24e2 <__cmpsf2>
    2374:	88 23       	and	r24, r24
    2376:	24 f4       	brge	.+8      	; 0x2380 <move_servo+0xae>
	*degrees = 0;
    2378:	18 82       	st	Y, r1
    237a:	19 82       	std	Y+1, r1	; 0x01
    237c:	1a 82       	std	Y+2, r1	; 0x02
    237e:	1b 82       	std	Y+3, r1	; 0x03
}
    2380:	df 91       	pop	r29
    2382:	cf 91       	pop	r28
    2384:	08 95       	ret

00002386 <USART_Init>:
/* See page 362 of User Guide for register summary                      */
/************************************************************************/
void USART_Init(unsigned int ubrr)
{
	/* Set baud rate. Put the upper part of the baud number here (bits 8 to 11) */
	UBRR0H = (unsigned char) (ubrr >> 8);
    2386:	90 93 90 00 	sts	0x0090, r25
	
	/*Put the remaining part of the baud number here*/
	UBRR0L = (unsigned char) ubrr;
    238a:	89 b9       	out	0x09, r24	; 9
	
	UCSR0A = (1 << U2X0); /* Steps Double Speed Asynchronous mode of communication */
    238c:	82 e0       	ldi	r24, 0x02	; 2
    238e:	8b b9       	out	0x0b, r24	; 11
	UCSR0B = (1 << RXEN0) | (1 << TXEN); /* Enable receiver and transmitter */
    2390:	88 e1       	ldi	r24, 0x18	; 24
    2392:	8a b9       	out	0x0a, r24	; 10

	UCSR0C = (1 << USBS0) | (3 << UCSZ00); /* Set frame format: 8data, 2stop bit */
    2394:	8e e0       	ldi	r24, 0x0E	; 14
    2396:	80 93 95 00 	sts	0x0095, r24
    239a:	08 95       	ret

0000239c <USART_Transmit>:
/* Enabled by USART_Init                                                */
/************************************************************************/
void USART_Transmit(unsigned char data)
{
	/* Wait for empty transmit buffer */
	while (!(UCSR0A & (1 << UDRE0))) ;
    239c:	5d 9b       	sbis	0x0b, 5	; 11
    239e:	fe cf       	rjmp	.-4      	; 0x239c <USART_Transmit>
	UDR0 = data; /* Put data into buffer, sends the data */
    23a0:	8c b9       	out	0x0c, r24	; 12
    23a2:	08 95       	ret

000023a4 <USART_Receive>:
/* Enabled by USART_Init                                                */
/************************************************************************/
unsigned char USART_Receive(void)
{
	/* Wait for data to be received */
	while (!(UCSR0A & (1 << RXC0))) ;
    23a4:	5f 9b       	sbis	0x0b, 7	; 11
    23a6:	fe cf       	rjmp	.-4      	; 0x23a4 <USART_Receive>
	
	return UDR0; /* Get and return received data from buffer */
    23a8:	8c b1       	in	r24, 0x0c	; 12
}
    23aa:	08 95       	ret

000023ac <send_message>:
/************************************************************************/
/* Calls USART_Transmit for each character in the array                 */
/************************************************************************/
void send_message(char *message)
{
    23ac:	cf 93       	push	r28
    23ae:	df 93       	push	r29
    23b0:	ec 01       	movw	r28, r24
	for (int i = 0; message[i] != '\0'; i++)
    23b2:	88 81       	ld	r24, Y
    23b4:	88 23       	and	r24, r24
    23b6:	29 f0       	breq	.+10     	; 0x23c2 <send_message+0x16>
    23b8:	21 96       	adiw	r28, 0x01	; 1
		USART_Transmit(message[i]);
    23ba:	f0 df       	rcall	.-32     	; 0x239c <USART_Transmit>
/************************************************************************/
/* Calls USART_Transmit for each character in the array                 */
/************************************************************************/
void send_message(char *message)
{
	for (int i = 0; message[i] != '\0'; i++)
    23bc:	89 91       	ld	r24, Y+
    23be:	81 11       	cpse	r24, r1
    23c0:	fc cf       	rjmp	.-8      	; 0x23ba <send_message+0xe>
		USART_Transmit(message[i]);
}
    23c2:	df 91       	pop	r29
    23c4:	cf 91       	pop	r28
    23c6:	08 95       	ret

000023c8 <__subsf3>:
    23c8:	50 58       	subi	r21, 0x80	; 128

000023ca <__addsf3>:
    23ca:	bb 27       	eor	r27, r27
    23cc:	aa 27       	eor	r26, r26
    23ce:	0e d0       	rcall	.+28     	; 0x23ec <__addsf3x>
    23d0:	ed c1       	rjmp	.+986    	; 0x27ac <__fp_round>
    23d2:	b6 d1       	rcall	.+876    	; 0x2740 <__fp_pscA>
    23d4:	30 f0       	brcs	.+12     	; 0x23e2 <__addsf3+0x18>
    23d6:	bb d1       	rcall	.+886    	; 0x274e <__fp_pscB>
    23d8:	20 f0       	brcs	.+8      	; 0x23e2 <__addsf3+0x18>
    23da:	31 f4       	brne	.+12     	; 0x23e8 <__addsf3+0x1e>
    23dc:	9f 3f       	cpi	r25, 0xFF	; 255
    23de:	11 f4       	brne	.+4      	; 0x23e4 <__addsf3+0x1a>
    23e0:	1e f4       	brtc	.+6      	; 0x23e8 <__addsf3+0x1e>
    23e2:	86 c1       	rjmp	.+780    	; 0x26f0 <__fp_nan>
    23e4:	0e f4       	brtc	.+2      	; 0x23e8 <__addsf3+0x1e>
    23e6:	e0 95       	com	r30
    23e8:	e7 fb       	bst	r30, 7
    23ea:	7c c1       	rjmp	.+760    	; 0x26e4 <__fp_inf>

000023ec <__addsf3x>:
    23ec:	e9 2f       	mov	r30, r25
    23ee:	00 d2       	rcall	.+1024   	; 0x27f0 <__fp_split3>
    23f0:	80 f3       	brcs	.-32     	; 0x23d2 <__addsf3+0x8>
    23f2:	ba 17       	cp	r27, r26
    23f4:	62 07       	cpc	r22, r18
    23f6:	73 07       	cpc	r23, r19
    23f8:	84 07       	cpc	r24, r20
    23fa:	95 07       	cpc	r25, r21
    23fc:	18 f0       	brcs	.+6      	; 0x2404 <__addsf3x+0x18>
    23fe:	71 f4       	brne	.+28     	; 0x241c <__addsf3x+0x30>
    2400:	9e f5       	brtc	.+102    	; 0x2468 <__addsf3x+0x7c>
    2402:	18 c2       	rjmp	.+1072   	; 0x2834 <__fp_zero>
    2404:	0e f4       	brtc	.+2      	; 0x2408 <__addsf3x+0x1c>
    2406:	e0 95       	com	r30
    2408:	0b 2e       	mov	r0, r27
    240a:	ba 2f       	mov	r27, r26
    240c:	a0 2d       	mov	r26, r0
    240e:	0b 01       	movw	r0, r22
    2410:	b9 01       	movw	r22, r18
    2412:	90 01       	movw	r18, r0
    2414:	0c 01       	movw	r0, r24
    2416:	ca 01       	movw	r24, r20
    2418:	a0 01       	movw	r20, r0
    241a:	11 24       	eor	r1, r1
    241c:	ff 27       	eor	r31, r31
    241e:	59 1b       	sub	r21, r25
    2420:	99 f0       	breq	.+38     	; 0x2448 <__addsf3x+0x5c>
    2422:	59 3f       	cpi	r21, 0xF9	; 249
    2424:	50 f4       	brcc	.+20     	; 0x243a <__addsf3x+0x4e>
    2426:	50 3e       	cpi	r21, 0xE0	; 224
    2428:	68 f1       	brcs	.+90     	; 0x2484 <__addsf3x+0x98>
    242a:	1a 16       	cp	r1, r26
    242c:	f0 40       	sbci	r31, 0x00	; 0
    242e:	a2 2f       	mov	r26, r18
    2430:	23 2f       	mov	r18, r19
    2432:	34 2f       	mov	r19, r20
    2434:	44 27       	eor	r20, r20
    2436:	58 5f       	subi	r21, 0xF8	; 248
    2438:	f3 cf       	rjmp	.-26     	; 0x2420 <__addsf3x+0x34>
    243a:	46 95       	lsr	r20
    243c:	37 95       	ror	r19
    243e:	27 95       	ror	r18
    2440:	a7 95       	ror	r26
    2442:	f0 40       	sbci	r31, 0x00	; 0
    2444:	53 95       	inc	r21
    2446:	c9 f7       	brne	.-14     	; 0x243a <__addsf3x+0x4e>
    2448:	7e f4       	brtc	.+30     	; 0x2468 <__addsf3x+0x7c>
    244a:	1f 16       	cp	r1, r31
    244c:	ba 0b       	sbc	r27, r26
    244e:	62 0b       	sbc	r22, r18
    2450:	73 0b       	sbc	r23, r19
    2452:	84 0b       	sbc	r24, r20
    2454:	ba f0       	brmi	.+46     	; 0x2484 <__addsf3x+0x98>
    2456:	91 50       	subi	r25, 0x01	; 1
    2458:	a1 f0       	breq	.+40     	; 0x2482 <__addsf3x+0x96>
    245a:	ff 0f       	add	r31, r31
    245c:	bb 1f       	adc	r27, r27
    245e:	66 1f       	adc	r22, r22
    2460:	77 1f       	adc	r23, r23
    2462:	88 1f       	adc	r24, r24
    2464:	c2 f7       	brpl	.-16     	; 0x2456 <__addsf3x+0x6a>
    2466:	0e c0       	rjmp	.+28     	; 0x2484 <__addsf3x+0x98>
    2468:	ba 0f       	add	r27, r26
    246a:	62 1f       	adc	r22, r18
    246c:	73 1f       	adc	r23, r19
    246e:	84 1f       	adc	r24, r20
    2470:	48 f4       	brcc	.+18     	; 0x2484 <__addsf3x+0x98>
    2472:	87 95       	ror	r24
    2474:	77 95       	ror	r23
    2476:	67 95       	ror	r22
    2478:	b7 95       	ror	r27
    247a:	f7 95       	ror	r31
    247c:	9e 3f       	cpi	r25, 0xFE	; 254
    247e:	08 f0       	brcs	.+2      	; 0x2482 <__addsf3x+0x96>
    2480:	b3 cf       	rjmp	.-154    	; 0x23e8 <__addsf3+0x1e>
    2482:	93 95       	inc	r25
    2484:	88 0f       	add	r24, r24
    2486:	08 f0       	brcs	.+2      	; 0x248a <__addsf3x+0x9e>
    2488:	99 27       	eor	r25, r25
    248a:	ee 0f       	add	r30, r30
    248c:	97 95       	ror	r25
    248e:	87 95       	ror	r24
    2490:	08 95       	ret

00002492 <atan>:
    2492:	df 93       	push	r29
    2494:	dd 27       	eor	r29, r29
    2496:	b9 2f       	mov	r27, r25
    2498:	bf 77       	andi	r27, 0x7F	; 127
    249a:	40 e8       	ldi	r20, 0x80	; 128
    249c:	5f e3       	ldi	r21, 0x3F	; 63
    249e:	16 16       	cp	r1, r22
    24a0:	17 06       	cpc	r1, r23
    24a2:	48 07       	cpc	r20, r24
    24a4:	5b 07       	cpc	r21, r27
    24a6:	10 f4       	brcc	.+4      	; 0x24ac <atan+0x1a>
    24a8:	d9 2f       	mov	r29, r25
    24aa:	cf d1       	rcall	.+926    	; 0x284a <inverse>
    24ac:	9f 93       	push	r25
    24ae:	8f 93       	push	r24
    24b0:	7f 93       	push	r23
    24b2:	6f 93       	push	r22
    24b4:	c8 d2       	rcall	.+1424   	; 0x2a46 <square>
    24b6:	ec e8       	ldi	r30, 0x8C	; 140
    24b8:	f0 e0       	ldi	r31, 0x00	; 0
    24ba:	1d d1       	rcall	.+570    	; 0x26f6 <__fp_powser>
    24bc:	77 d1       	rcall	.+750    	; 0x27ac <__fp_round>
    24be:	2f 91       	pop	r18
    24c0:	3f 91       	pop	r19
    24c2:	4f 91       	pop	r20
    24c4:	5f 91       	pop	r21
    24c6:	d4 d1       	rcall	.+936    	; 0x2870 <__mulsf3x>
    24c8:	dd 23       	and	r29, r29
    24ca:	49 f0       	breq	.+18     	; 0x24de <atan+0x4c>
    24cc:	90 58       	subi	r25, 0x80	; 128
    24ce:	a2 ea       	ldi	r26, 0xA2	; 162
    24d0:	2a ed       	ldi	r18, 0xDA	; 218
    24d2:	3f e0       	ldi	r19, 0x0F	; 15
    24d4:	49 ec       	ldi	r20, 0xC9	; 201
    24d6:	5f e3       	ldi	r21, 0x3F	; 63
    24d8:	d0 78       	andi	r29, 0x80	; 128
    24da:	5d 27       	eor	r21, r29
    24dc:	87 df       	rcall	.-242    	; 0x23ec <__addsf3x>
    24de:	df 91       	pop	r29
    24e0:	65 c1       	rjmp	.+714    	; 0x27ac <__fp_round>

000024e2 <__cmpsf2>:
    24e2:	dc d0       	rcall	.+440    	; 0x269c <__fp_cmp>
    24e4:	08 f4       	brcc	.+2      	; 0x24e8 <__cmpsf2+0x6>
    24e6:	81 e0       	ldi	r24, 0x01	; 1
    24e8:	08 95       	ret

000024ea <cos>:
    24ea:	39 d1       	rcall	.+626    	; 0x275e <__fp_rempio2>
    24ec:	e3 95       	inc	r30
    24ee:	6f c1       	rjmp	.+734    	; 0x27ce <__fp_sinus>

000024f0 <__divsf3>:
    24f0:	0c d0       	rcall	.+24     	; 0x250a <__divsf3x>
    24f2:	5c c1       	rjmp	.+696    	; 0x27ac <__fp_round>
    24f4:	2c d1       	rcall	.+600    	; 0x274e <__fp_pscB>
    24f6:	40 f0       	brcs	.+16     	; 0x2508 <__divsf3+0x18>
    24f8:	23 d1       	rcall	.+582    	; 0x2740 <__fp_pscA>
    24fa:	30 f0       	brcs	.+12     	; 0x2508 <__divsf3+0x18>
    24fc:	21 f4       	brne	.+8      	; 0x2506 <__divsf3+0x16>
    24fe:	5f 3f       	cpi	r21, 0xFF	; 255
    2500:	19 f0       	breq	.+6      	; 0x2508 <__divsf3+0x18>
    2502:	f0 c0       	rjmp	.+480    	; 0x26e4 <__fp_inf>
    2504:	51 11       	cpse	r21, r1
    2506:	97 c1       	rjmp	.+814    	; 0x2836 <__fp_szero>
    2508:	f3 c0       	rjmp	.+486    	; 0x26f0 <__fp_nan>

0000250a <__divsf3x>:
    250a:	72 d1       	rcall	.+740    	; 0x27f0 <__fp_split3>
    250c:	98 f3       	brcs	.-26     	; 0x24f4 <__divsf3+0x4>

0000250e <__divsf3_pse>:
    250e:	99 23       	and	r25, r25
    2510:	c9 f3       	breq	.-14     	; 0x2504 <__divsf3+0x14>
    2512:	55 23       	and	r21, r21
    2514:	b1 f3       	breq	.-20     	; 0x2502 <__divsf3+0x12>
    2516:	95 1b       	sub	r25, r21
    2518:	55 0b       	sbc	r21, r21
    251a:	bb 27       	eor	r27, r27
    251c:	aa 27       	eor	r26, r26
    251e:	62 17       	cp	r22, r18
    2520:	73 07       	cpc	r23, r19
    2522:	84 07       	cpc	r24, r20
    2524:	38 f0       	brcs	.+14     	; 0x2534 <__divsf3_pse+0x26>
    2526:	9f 5f       	subi	r25, 0xFF	; 255
    2528:	5f 4f       	sbci	r21, 0xFF	; 255
    252a:	22 0f       	add	r18, r18
    252c:	33 1f       	adc	r19, r19
    252e:	44 1f       	adc	r20, r20
    2530:	aa 1f       	adc	r26, r26
    2532:	a9 f3       	breq	.-22     	; 0x251e <__divsf3_pse+0x10>
    2534:	33 d0       	rcall	.+102    	; 0x259c <__divsf3_pse+0x8e>
    2536:	0e 2e       	mov	r0, r30
    2538:	3a f0       	brmi	.+14     	; 0x2548 <__divsf3_pse+0x3a>
    253a:	e0 e8       	ldi	r30, 0x80	; 128
    253c:	30 d0       	rcall	.+96     	; 0x259e <__divsf3_pse+0x90>
    253e:	91 50       	subi	r25, 0x01	; 1
    2540:	50 40       	sbci	r21, 0x00	; 0
    2542:	e6 95       	lsr	r30
    2544:	00 1c       	adc	r0, r0
    2546:	ca f7       	brpl	.-14     	; 0x253a <__divsf3_pse+0x2c>
    2548:	29 d0       	rcall	.+82     	; 0x259c <__divsf3_pse+0x8e>
    254a:	fe 2f       	mov	r31, r30
    254c:	27 d0       	rcall	.+78     	; 0x259c <__divsf3_pse+0x8e>
    254e:	66 0f       	add	r22, r22
    2550:	77 1f       	adc	r23, r23
    2552:	88 1f       	adc	r24, r24
    2554:	bb 1f       	adc	r27, r27
    2556:	26 17       	cp	r18, r22
    2558:	37 07       	cpc	r19, r23
    255a:	48 07       	cpc	r20, r24
    255c:	ab 07       	cpc	r26, r27
    255e:	b0 e8       	ldi	r27, 0x80	; 128
    2560:	09 f0       	breq	.+2      	; 0x2564 <__divsf3_pse+0x56>
    2562:	bb 0b       	sbc	r27, r27
    2564:	80 2d       	mov	r24, r0
    2566:	bf 01       	movw	r22, r30
    2568:	ff 27       	eor	r31, r31
    256a:	93 58       	subi	r25, 0x83	; 131
    256c:	5f 4f       	sbci	r21, 0xFF	; 255
    256e:	2a f0       	brmi	.+10     	; 0x257a <__divsf3_pse+0x6c>
    2570:	9e 3f       	cpi	r25, 0xFE	; 254
    2572:	51 05       	cpc	r21, r1
    2574:	68 f0       	brcs	.+26     	; 0x2590 <__divsf3_pse+0x82>
    2576:	b6 c0       	rjmp	.+364    	; 0x26e4 <__fp_inf>
    2578:	5e c1       	rjmp	.+700    	; 0x2836 <__fp_szero>
    257a:	5f 3f       	cpi	r21, 0xFF	; 255
    257c:	ec f3       	brlt	.-6      	; 0x2578 <__divsf3_pse+0x6a>
    257e:	98 3e       	cpi	r25, 0xE8	; 232
    2580:	dc f3       	brlt	.-10     	; 0x2578 <__divsf3_pse+0x6a>
    2582:	86 95       	lsr	r24
    2584:	77 95       	ror	r23
    2586:	67 95       	ror	r22
    2588:	b7 95       	ror	r27
    258a:	f7 95       	ror	r31
    258c:	9f 5f       	subi	r25, 0xFF	; 255
    258e:	c9 f7       	brne	.-14     	; 0x2582 <__divsf3_pse+0x74>
    2590:	88 0f       	add	r24, r24
    2592:	91 1d       	adc	r25, r1
    2594:	96 95       	lsr	r25
    2596:	87 95       	ror	r24
    2598:	97 f9       	bld	r25, 7
    259a:	08 95       	ret
    259c:	e1 e0       	ldi	r30, 0x01	; 1
    259e:	66 0f       	add	r22, r22
    25a0:	77 1f       	adc	r23, r23
    25a2:	88 1f       	adc	r24, r24
    25a4:	bb 1f       	adc	r27, r27
    25a6:	62 17       	cp	r22, r18
    25a8:	73 07       	cpc	r23, r19
    25aa:	84 07       	cpc	r24, r20
    25ac:	ba 07       	cpc	r27, r26
    25ae:	20 f0       	brcs	.+8      	; 0x25b8 <__divsf3_pse+0xaa>
    25b0:	62 1b       	sub	r22, r18
    25b2:	73 0b       	sbc	r23, r19
    25b4:	84 0b       	sbc	r24, r20
    25b6:	ba 0b       	sbc	r27, r26
    25b8:	ee 1f       	adc	r30, r30
    25ba:	88 f7       	brcc	.-30     	; 0x259e <__divsf3_pse+0x90>
    25bc:	e0 95       	com	r30
    25be:	08 95       	ret

000025c0 <__fixsfsi>:
    25c0:	04 d0       	rcall	.+8      	; 0x25ca <__fixunssfsi>
    25c2:	68 94       	set
    25c4:	b1 11       	cpse	r27, r1
    25c6:	37 c1       	rjmp	.+622    	; 0x2836 <__fp_szero>
    25c8:	08 95       	ret

000025ca <__fixunssfsi>:
    25ca:	1a d1       	rcall	.+564    	; 0x2800 <__fp_splitA>
    25cc:	88 f0       	brcs	.+34     	; 0x25f0 <__fixunssfsi+0x26>
    25ce:	9f 57       	subi	r25, 0x7F	; 127
    25d0:	90 f0       	brcs	.+36     	; 0x25f6 <__fixunssfsi+0x2c>
    25d2:	b9 2f       	mov	r27, r25
    25d4:	99 27       	eor	r25, r25
    25d6:	b7 51       	subi	r27, 0x17	; 23
    25d8:	a0 f0       	brcs	.+40     	; 0x2602 <__fixunssfsi+0x38>
    25da:	d1 f0       	breq	.+52     	; 0x2610 <__fixunssfsi+0x46>
    25dc:	66 0f       	add	r22, r22
    25de:	77 1f       	adc	r23, r23
    25e0:	88 1f       	adc	r24, r24
    25e2:	99 1f       	adc	r25, r25
    25e4:	1a f0       	brmi	.+6      	; 0x25ec <__fixunssfsi+0x22>
    25e6:	ba 95       	dec	r27
    25e8:	c9 f7       	brne	.-14     	; 0x25dc <__fixunssfsi+0x12>
    25ea:	12 c0       	rjmp	.+36     	; 0x2610 <__fixunssfsi+0x46>
    25ec:	b1 30       	cpi	r27, 0x01	; 1
    25ee:	81 f0       	breq	.+32     	; 0x2610 <__fixunssfsi+0x46>
    25f0:	21 d1       	rcall	.+578    	; 0x2834 <__fp_zero>
    25f2:	b1 e0       	ldi	r27, 0x01	; 1
    25f4:	08 95       	ret
    25f6:	1e c1       	rjmp	.+572    	; 0x2834 <__fp_zero>
    25f8:	67 2f       	mov	r22, r23
    25fa:	78 2f       	mov	r23, r24
    25fc:	88 27       	eor	r24, r24
    25fe:	b8 5f       	subi	r27, 0xF8	; 248
    2600:	39 f0       	breq	.+14     	; 0x2610 <__fixunssfsi+0x46>
    2602:	b9 3f       	cpi	r27, 0xF9	; 249
    2604:	cc f3       	brlt	.-14     	; 0x25f8 <__fixunssfsi+0x2e>
    2606:	86 95       	lsr	r24
    2608:	77 95       	ror	r23
    260a:	67 95       	ror	r22
    260c:	b3 95       	inc	r27
    260e:	d9 f7       	brne	.-10     	; 0x2606 <__fixunssfsi+0x3c>
    2610:	3e f4       	brtc	.+14     	; 0x2620 <__fixunssfsi+0x56>
    2612:	90 95       	com	r25
    2614:	80 95       	com	r24
    2616:	70 95       	com	r23
    2618:	61 95       	neg	r22
    261a:	7f 4f       	sbci	r23, 0xFF	; 255
    261c:	8f 4f       	sbci	r24, 0xFF	; 255
    261e:	9f 4f       	sbci	r25, 0xFF	; 255
    2620:	08 95       	ret

00002622 <__floatunsisf>:
    2622:	e8 94       	clt
    2624:	09 c0       	rjmp	.+18     	; 0x2638 <__floatsisf+0x12>

00002626 <__floatsisf>:
    2626:	97 fb       	bst	r25, 7
    2628:	3e f4       	brtc	.+14     	; 0x2638 <__floatsisf+0x12>
    262a:	90 95       	com	r25
    262c:	80 95       	com	r24
    262e:	70 95       	com	r23
    2630:	61 95       	neg	r22
    2632:	7f 4f       	sbci	r23, 0xFF	; 255
    2634:	8f 4f       	sbci	r24, 0xFF	; 255
    2636:	9f 4f       	sbci	r25, 0xFF	; 255
    2638:	99 23       	and	r25, r25
    263a:	a9 f0       	breq	.+42     	; 0x2666 <__floatsisf+0x40>
    263c:	f9 2f       	mov	r31, r25
    263e:	96 e9       	ldi	r25, 0x96	; 150
    2640:	bb 27       	eor	r27, r27
    2642:	93 95       	inc	r25
    2644:	f6 95       	lsr	r31
    2646:	87 95       	ror	r24
    2648:	77 95       	ror	r23
    264a:	67 95       	ror	r22
    264c:	b7 95       	ror	r27
    264e:	f1 11       	cpse	r31, r1
    2650:	f8 cf       	rjmp	.-16     	; 0x2642 <__floatsisf+0x1c>
    2652:	fa f4       	brpl	.+62     	; 0x2692 <__floatsisf+0x6c>
    2654:	bb 0f       	add	r27, r27
    2656:	11 f4       	brne	.+4      	; 0x265c <__floatsisf+0x36>
    2658:	60 ff       	sbrs	r22, 0
    265a:	1b c0       	rjmp	.+54     	; 0x2692 <__floatsisf+0x6c>
    265c:	6f 5f       	subi	r22, 0xFF	; 255
    265e:	7f 4f       	sbci	r23, 0xFF	; 255
    2660:	8f 4f       	sbci	r24, 0xFF	; 255
    2662:	9f 4f       	sbci	r25, 0xFF	; 255
    2664:	16 c0       	rjmp	.+44     	; 0x2692 <__floatsisf+0x6c>
    2666:	88 23       	and	r24, r24
    2668:	11 f0       	breq	.+4      	; 0x266e <__floatsisf+0x48>
    266a:	96 e9       	ldi	r25, 0x96	; 150
    266c:	11 c0       	rjmp	.+34     	; 0x2690 <__floatsisf+0x6a>
    266e:	77 23       	and	r23, r23
    2670:	21 f0       	breq	.+8      	; 0x267a <__floatsisf+0x54>
    2672:	9e e8       	ldi	r25, 0x8E	; 142
    2674:	87 2f       	mov	r24, r23
    2676:	76 2f       	mov	r23, r22
    2678:	05 c0       	rjmp	.+10     	; 0x2684 <__floatsisf+0x5e>
    267a:	66 23       	and	r22, r22
    267c:	71 f0       	breq	.+28     	; 0x269a <__floatsisf+0x74>
    267e:	96 e8       	ldi	r25, 0x86	; 134
    2680:	86 2f       	mov	r24, r22
    2682:	70 e0       	ldi	r23, 0x00	; 0
    2684:	60 e0       	ldi	r22, 0x00	; 0
    2686:	2a f0       	brmi	.+10     	; 0x2692 <__floatsisf+0x6c>
    2688:	9a 95       	dec	r25
    268a:	66 0f       	add	r22, r22
    268c:	77 1f       	adc	r23, r23
    268e:	88 1f       	adc	r24, r24
    2690:	da f7       	brpl	.-10     	; 0x2688 <__floatsisf+0x62>
    2692:	88 0f       	add	r24, r24
    2694:	96 95       	lsr	r25
    2696:	87 95       	ror	r24
    2698:	97 f9       	bld	r25, 7
    269a:	08 95       	ret

0000269c <__fp_cmp>:
    269c:	99 0f       	add	r25, r25
    269e:	00 08       	sbc	r0, r0
    26a0:	55 0f       	add	r21, r21
    26a2:	aa 0b       	sbc	r26, r26
    26a4:	e0 e8       	ldi	r30, 0x80	; 128
    26a6:	fe ef       	ldi	r31, 0xFE	; 254
    26a8:	16 16       	cp	r1, r22
    26aa:	17 06       	cpc	r1, r23
    26ac:	e8 07       	cpc	r30, r24
    26ae:	f9 07       	cpc	r31, r25
    26b0:	c0 f0       	brcs	.+48     	; 0x26e2 <__fp_cmp+0x46>
    26b2:	12 16       	cp	r1, r18
    26b4:	13 06       	cpc	r1, r19
    26b6:	e4 07       	cpc	r30, r20
    26b8:	f5 07       	cpc	r31, r21
    26ba:	98 f0       	brcs	.+38     	; 0x26e2 <__fp_cmp+0x46>
    26bc:	62 1b       	sub	r22, r18
    26be:	73 0b       	sbc	r23, r19
    26c0:	84 0b       	sbc	r24, r20
    26c2:	95 0b       	sbc	r25, r21
    26c4:	39 f4       	brne	.+14     	; 0x26d4 <__fp_cmp+0x38>
    26c6:	0a 26       	eor	r0, r26
    26c8:	61 f0       	breq	.+24     	; 0x26e2 <__fp_cmp+0x46>
    26ca:	23 2b       	or	r18, r19
    26cc:	24 2b       	or	r18, r20
    26ce:	25 2b       	or	r18, r21
    26d0:	21 f4       	brne	.+8      	; 0x26da <__fp_cmp+0x3e>
    26d2:	08 95       	ret
    26d4:	0a 26       	eor	r0, r26
    26d6:	09 f4       	brne	.+2      	; 0x26da <__fp_cmp+0x3e>
    26d8:	a1 40       	sbci	r26, 0x01	; 1
    26da:	a6 95       	lsr	r26
    26dc:	8f ef       	ldi	r24, 0xFF	; 255
    26de:	81 1d       	adc	r24, r1
    26e0:	81 1d       	adc	r24, r1
    26e2:	08 95       	ret

000026e4 <__fp_inf>:
    26e4:	97 f9       	bld	r25, 7
    26e6:	9f 67       	ori	r25, 0x7F	; 127
    26e8:	80 e8       	ldi	r24, 0x80	; 128
    26ea:	70 e0       	ldi	r23, 0x00	; 0
    26ec:	60 e0       	ldi	r22, 0x00	; 0
    26ee:	08 95       	ret

000026f0 <__fp_nan>:
    26f0:	9f ef       	ldi	r25, 0xFF	; 255
    26f2:	80 ec       	ldi	r24, 0xC0	; 192
    26f4:	08 95       	ret

000026f6 <__fp_powser>:
    26f6:	df 93       	push	r29
    26f8:	cf 93       	push	r28
    26fa:	1f 93       	push	r17
    26fc:	0f 93       	push	r16
    26fe:	ff 92       	push	r15
    2700:	ef 92       	push	r14
    2702:	df 92       	push	r13
    2704:	7b 01       	movw	r14, r22
    2706:	8c 01       	movw	r16, r24
    2708:	68 94       	set
    270a:	05 c0       	rjmp	.+10     	; 0x2716 <__fp_powser+0x20>
    270c:	da 2e       	mov	r13, r26
    270e:	ef 01       	movw	r28, r30
    2710:	af d0       	rcall	.+350    	; 0x2870 <__mulsf3x>
    2712:	fe 01       	movw	r30, r28
    2714:	e8 94       	clt
    2716:	a5 91       	lpm	r26, Z+
    2718:	25 91       	lpm	r18, Z+
    271a:	35 91       	lpm	r19, Z+
    271c:	45 91       	lpm	r20, Z+
    271e:	55 91       	lpm	r21, Z+
    2720:	ae f3       	brts	.-22     	; 0x270c <__fp_powser+0x16>
    2722:	ef 01       	movw	r28, r30
    2724:	63 de       	rcall	.-826    	; 0x23ec <__addsf3x>
    2726:	fe 01       	movw	r30, r28
    2728:	97 01       	movw	r18, r14
    272a:	a8 01       	movw	r20, r16
    272c:	da 94       	dec	r13
    272e:	79 f7       	brne	.-34     	; 0x270e <__fp_powser+0x18>
    2730:	df 90       	pop	r13
    2732:	ef 90       	pop	r14
    2734:	ff 90       	pop	r15
    2736:	0f 91       	pop	r16
    2738:	1f 91       	pop	r17
    273a:	cf 91       	pop	r28
    273c:	df 91       	pop	r29
    273e:	08 95       	ret

00002740 <__fp_pscA>:
    2740:	00 24       	eor	r0, r0
    2742:	0a 94       	dec	r0
    2744:	16 16       	cp	r1, r22
    2746:	17 06       	cpc	r1, r23
    2748:	18 06       	cpc	r1, r24
    274a:	09 06       	cpc	r0, r25
    274c:	08 95       	ret

0000274e <__fp_pscB>:
    274e:	00 24       	eor	r0, r0
    2750:	0a 94       	dec	r0
    2752:	12 16       	cp	r1, r18
    2754:	13 06       	cpc	r1, r19
    2756:	14 06       	cpc	r1, r20
    2758:	05 06       	cpc	r0, r21
    275a:	08 95       	ret
    275c:	c9 cf       	rjmp	.-110    	; 0x26f0 <__fp_nan>

0000275e <__fp_rempio2>:
    275e:	50 d0       	rcall	.+160    	; 0x2800 <__fp_splitA>
    2760:	e8 f3       	brcs	.-6      	; 0x275c <__fp_pscB+0xe>
    2762:	e8 94       	clt
    2764:	e0 e0       	ldi	r30, 0x00	; 0
    2766:	bb 27       	eor	r27, r27
    2768:	9f 57       	subi	r25, 0x7F	; 127
    276a:	f0 f0       	brcs	.+60     	; 0x27a8 <__fp_rempio2+0x4a>
    276c:	2a ed       	ldi	r18, 0xDA	; 218
    276e:	3f e0       	ldi	r19, 0x0F	; 15
    2770:	49 ec       	ldi	r20, 0xC9	; 201
    2772:	06 c0       	rjmp	.+12     	; 0x2780 <__fp_rempio2+0x22>
    2774:	ee 0f       	add	r30, r30
    2776:	bb 0f       	add	r27, r27
    2778:	66 1f       	adc	r22, r22
    277a:	77 1f       	adc	r23, r23
    277c:	88 1f       	adc	r24, r24
    277e:	28 f0       	brcs	.+10     	; 0x278a <__fp_rempio2+0x2c>
    2780:	b2 3a       	cpi	r27, 0xA2	; 162
    2782:	62 07       	cpc	r22, r18
    2784:	73 07       	cpc	r23, r19
    2786:	84 07       	cpc	r24, r20
    2788:	28 f0       	brcs	.+10     	; 0x2794 <__fp_rempio2+0x36>
    278a:	b2 5a       	subi	r27, 0xA2	; 162
    278c:	62 0b       	sbc	r22, r18
    278e:	73 0b       	sbc	r23, r19
    2790:	84 0b       	sbc	r24, r20
    2792:	e3 95       	inc	r30
    2794:	9a 95       	dec	r25
    2796:	72 f7       	brpl	.-36     	; 0x2774 <__fp_rempio2+0x16>
    2798:	80 38       	cpi	r24, 0x80	; 128
    279a:	30 f4       	brcc	.+12     	; 0x27a8 <__fp_rempio2+0x4a>
    279c:	9a 95       	dec	r25
    279e:	bb 0f       	add	r27, r27
    27a0:	66 1f       	adc	r22, r22
    27a2:	77 1f       	adc	r23, r23
    27a4:	88 1f       	adc	r24, r24
    27a6:	d2 f7       	brpl	.-12     	; 0x279c <__fp_rempio2+0x3e>
    27a8:	90 48       	sbci	r25, 0x80	; 128
    27aa:	a3 c1       	rjmp	.+838    	; 0x2af2 <__fp_mpack_finite>

000027ac <__fp_round>:
    27ac:	09 2e       	mov	r0, r25
    27ae:	03 94       	inc	r0
    27b0:	00 0c       	add	r0, r0
    27b2:	11 f4       	brne	.+4      	; 0x27b8 <__fp_round+0xc>
    27b4:	88 23       	and	r24, r24
    27b6:	52 f0       	brmi	.+20     	; 0x27cc <__fp_round+0x20>
    27b8:	bb 0f       	add	r27, r27
    27ba:	40 f4       	brcc	.+16     	; 0x27cc <__fp_round+0x20>
    27bc:	bf 2b       	or	r27, r31
    27be:	11 f4       	brne	.+4      	; 0x27c4 <__fp_round+0x18>
    27c0:	60 ff       	sbrs	r22, 0
    27c2:	04 c0       	rjmp	.+8      	; 0x27cc <__fp_round+0x20>
    27c4:	6f 5f       	subi	r22, 0xFF	; 255
    27c6:	7f 4f       	sbci	r23, 0xFF	; 255
    27c8:	8f 4f       	sbci	r24, 0xFF	; 255
    27ca:	9f 4f       	sbci	r25, 0xFF	; 255
    27cc:	08 95       	ret

000027ce <__fp_sinus>:
    27ce:	ef 93       	push	r30
    27d0:	e0 ff       	sbrs	r30, 0
    27d2:	06 c0       	rjmp	.+12     	; 0x27e0 <__fp_sinus+0x12>
    27d4:	a2 ea       	ldi	r26, 0xA2	; 162
    27d6:	2a ed       	ldi	r18, 0xDA	; 218
    27d8:	3f e0       	ldi	r19, 0x0F	; 15
    27da:	49 ec       	ldi	r20, 0xC9	; 201
    27dc:	5f eb       	ldi	r21, 0xBF	; 191
    27de:	06 de       	rcall	.-1012   	; 0x23ec <__addsf3x>
    27e0:	e5 df       	rcall	.-54     	; 0x27ac <__fp_round>
    27e2:	0f 90       	pop	r0
    27e4:	03 94       	inc	r0
    27e6:	01 fc       	sbrc	r0, 1
    27e8:	90 58       	subi	r25, 0x80	; 128
    27ea:	e9 eb       	ldi	r30, 0xB9	; 185
    27ec:	f0 e0       	ldi	r31, 0x00	; 0
    27ee:	94 c1       	rjmp	.+808    	; 0x2b18 <__fp_powsodd>

000027f0 <__fp_split3>:
    27f0:	57 fd       	sbrc	r21, 7
    27f2:	90 58       	subi	r25, 0x80	; 128
    27f4:	44 0f       	add	r20, r20
    27f6:	55 1f       	adc	r21, r21
    27f8:	59 f0       	breq	.+22     	; 0x2810 <__fp_splitA+0x10>
    27fa:	5f 3f       	cpi	r21, 0xFF	; 255
    27fc:	71 f0       	breq	.+28     	; 0x281a <__fp_splitA+0x1a>
    27fe:	47 95       	ror	r20

00002800 <__fp_splitA>:
    2800:	88 0f       	add	r24, r24
    2802:	97 fb       	bst	r25, 7
    2804:	99 1f       	adc	r25, r25
    2806:	61 f0       	breq	.+24     	; 0x2820 <__fp_splitA+0x20>
    2808:	9f 3f       	cpi	r25, 0xFF	; 255
    280a:	79 f0       	breq	.+30     	; 0x282a <__fp_splitA+0x2a>
    280c:	87 95       	ror	r24
    280e:	08 95       	ret
    2810:	12 16       	cp	r1, r18
    2812:	13 06       	cpc	r1, r19
    2814:	14 06       	cpc	r1, r20
    2816:	55 1f       	adc	r21, r21
    2818:	f2 cf       	rjmp	.-28     	; 0x27fe <__fp_split3+0xe>
    281a:	46 95       	lsr	r20
    281c:	f1 df       	rcall	.-30     	; 0x2800 <__fp_splitA>
    281e:	08 c0       	rjmp	.+16     	; 0x2830 <__fp_splitA+0x30>
    2820:	16 16       	cp	r1, r22
    2822:	17 06       	cpc	r1, r23
    2824:	18 06       	cpc	r1, r24
    2826:	99 1f       	adc	r25, r25
    2828:	f1 cf       	rjmp	.-30     	; 0x280c <__fp_splitA+0xc>
    282a:	86 95       	lsr	r24
    282c:	71 05       	cpc	r23, r1
    282e:	61 05       	cpc	r22, r1
    2830:	08 94       	sec
    2832:	08 95       	ret

00002834 <__fp_zero>:
    2834:	e8 94       	clt

00002836 <__fp_szero>:
    2836:	bb 27       	eor	r27, r27
    2838:	66 27       	eor	r22, r22
    283a:	77 27       	eor	r23, r23
    283c:	cb 01       	movw	r24, r22
    283e:	97 f9       	bld	r25, 7
    2840:	08 95       	ret

00002842 <__gesf2>:
    2842:	2c df       	rcall	.-424    	; 0x269c <__fp_cmp>
    2844:	08 f4       	brcc	.+2      	; 0x2848 <__gesf2+0x6>
    2846:	8f ef       	ldi	r24, 0xFF	; 255
    2848:	08 95       	ret

0000284a <inverse>:
    284a:	9b 01       	movw	r18, r22
    284c:	ac 01       	movw	r20, r24
    284e:	60 e0       	ldi	r22, 0x00	; 0
    2850:	70 e0       	ldi	r23, 0x00	; 0
    2852:	80 e8       	ldi	r24, 0x80	; 128
    2854:	9f e3       	ldi	r25, 0x3F	; 63
    2856:	4c ce       	rjmp	.-872    	; 0x24f0 <__divsf3>

00002858 <__mulsf3>:
    2858:	0b d0       	rcall	.+22     	; 0x2870 <__mulsf3x>
    285a:	a8 cf       	rjmp	.-176    	; 0x27ac <__fp_round>
    285c:	71 df       	rcall	.-286    	; 0x2740 <__fp_pscA>
    285e:	28 f0       	brcs	.+10     	; 0x286a <__mulsf3+0x12>
    2860:	76 df       	rcall	.-276    	; 0x274e <__fp_pscB>
    2862:	18 f0       	brcs	.+6      	; 0x286a <__mulsf3+0x12>
    2864:	95 23       	and	r25, r21
    2866:	09 f0       	breq	.+2      	; 0x286a <__mulsf3+0x12>
    2868:	3d cf       	rjmp	.-390    	; 0x26e4 <__fp_inf>
    286a:	42 cf       	rjmp	.-380    	; 0x26f0 <__fp_nan>
    286c:	11 24       	eor	r1, r1
    286e:	e3 cf       	rjmp	.-58     	; 0x2836 <__fp_szero>

00002870 <__mulsf3x>:
    2870:	bf df       	rcall	.-130    	; 0x27f0 <__fp_split3>
    2872:	a0 f3       	brcs	.-24     	; 0x285c <__mulsf3+0x4>

00002874 <__mulsf3_pse>:
    2874:	95 9f       	mul	r25, r21
    2876:	d1 f3       	breq	.-12     	; 0x286c <__mulsf3+0x14>
    2878:	95 0f       	add	r25, r21
    287a:	50 e0       	ldi	r21, 0x00	; 0
    287c:	55 1f       	adc	r21, r21
    287e:	62 9f       	mul	r22, r18
    2880:	f0 01       	movw	r30, r0
    2882:	72 9f       	mul	r23, r18
    2884:	bb 27       	eor	r27, r27
    2886:	f0 0d       	add	r31, r0
    2888:	b1 1d       	adc	r27, r1
    288a:	63 9f       	mul	r22, r19
    288c:	aa 27       	eor	r26, r26
    288e:	f0 0d       	add	r31, r0
    2890:	b1 1d       	adc	r27, r1
    2892:	aa 1f       	adc	r26, r26
    2894:	64 9f       	mul	r22, r20
    2896:	66 27       	eor	r22, r22
    2898:	b0 0d       	add	r27, r0
    289a:	a1 1d       	adc	r26, r1
    289c:	66 1f       	adc	r22, r22
    289e:	82 9f       	mul	r24, r18
    28a0:	22 27       	eor	r18, r18
    28a2:	b0 0d       	add	r27, r0
    28a4:	a1 1d       	adc	r26, r1
    28a6:	62 1f       	adc	r22, r18
    28a8:	73 9f       	mul	r23, r19
    28aa:	b0 0d       	add	r27, r0
    28ac:	a1 1d       	adc	r26, r1
    28ae:	62 1f       	adc	r22, r18
    28b0:	83 9f       	mul	r24, r19
    28b2:	a0 0d       	add	r26, r0
    28b4:	61 1d       	adc	r22, r1
    28b6:	22 1f       	adc	r18, r18
    28b8:	74 9f       	mul	r23, r20
    28ba:	33 27       	eor	r19, r19
    28bc:	a0 0d       	add	r26, r0
    28be:	61 1d       	adc	r22, r1
    28c0:	23 1f       	adc	r18, r19
    28c2:	84 9f       	mul	r24, r20
    28c4:	60 0d       	add	r22, r0
    28c6:	21 1d       	adc	r18, r1
    28c8:	82 2f       	mov	r24, r18
    28ca:	76 2f       	mov	r23, r22
    28cc:	6a 2f       	mov	r22, r26
    28ce:	11 24       	eor	r1, r1
    28d0:	9f 57       	subi	r25, 0x7F	; 127
    28d2:	50 40       	sbci	r21, 0x00	; 0
    28d4:	8a f0       	brmi	.+34     	; 0x28f8 <__mulsf3_pse+0x84>
    28d6:	e1 f0       	breq	.+56     	; 0x2910 <__mulsf3_pse+0x9c>
    28d8:	88 23       	and	r24, r24
    28da:	4a f0       	brmi	.+18     	; 0x28ee <__mulsf3_pse+0x7a>
    28dc:	ee 0f       	add	r30, r30
    28de:	ff 1f       	adc	r31, r31
    28e0:	bb 1f       	adc	r27, r27
    28e2:	66 1f       	adc	r22, r22
    28e4:	77 1f       	adc	r23, r23
    28e6:	88 1f       	adc	r24, r24
    28e8:	91 50       	subi	r25, 0x01	; 1
    28ea:	50 40       	sbci	r21, 0x00	; 0
    28ec:	a9 f7       	brne	.-22     	; 0x28d8 <__mulsf3_pse+0x64>
    28ee:	9e 3f       	cpi	r25, 0xFE	; 254
    28f0:	51 05       	cpc	r21, r1
    28f2:	70 f0       	brcs	.+28     	; 0x2910 <__mulsf3_pse+0x9c>
    28f4:	f7 ce       	rjmp	.-530    	; 0x26e4 <__fp_inf>
    28f6:	9f cf       	rjmp	.-194    	; 0x2836 <__fp_szero>
    28f8:	5f 3f       	cpi	r21, 0xFF	; 255
    28fa:	ec f3       	brlt	.-6      	; 0x28f6 <__mulsf3_pse+0x82>
    28fc:	98 3e       	cpi	r25, 0xE8	; 232
    28fe:	dc f3       	brlt	.-10     	; 0x28f6 <__mulsf3_pse+0x82>
    2900:	86 95       	lsr	r24
    2902:	77 95       	ror	r23
    2904:	67 95       	ror	r22
    2906:	b7 95       	ror	r27
    2908:	f7 95       	ror	r31
    290a:	e7 95       	ror	r30
    290c:	9f 5f       	subi	r25, 0xFF	; 255
    290e:	c1 f7       	brne	.-16     	; 0x2900 <__mulsf3_pse+0x8c>
    2910:	fe 2b       	or	r31, r30
    2912:	88 0f       	add	r24, r24
    2914:	91 1d       	adc	r25, r1
    2916:	96 95       	lsr	r25
    2918:	87 95       	ror	r24
    291a:	97 f9       	bld	r25, 7
    291c:	08 95       	ret

0000291e <pow>:
    291e:	fa 01       	movw	r30, r20
    2920:	ee 0f       	add	r30, r30
    2922:	ff 1f       	adc	r31, r31
    2924:	30 96       	adiw	r30, 0x00	; 0
    2926:	21 05       	cpc	r18, r1
    2928:	31 05       	cpc	r19, r1
    292a:	99 f1       	breq	.+102    	; 0x2992 <pow+0x74>
    292c:	61 15       	cp	r22, r1
    292e:	71 05       	cpc	r23, r1
    2930:	61 f4       	brne	.+24     	; 0x294a <pow+0x2c>
    2932:	80 38       	cpi	r24, 0x80	; 128
    2934:	bf e3       	ldi	r27, 0x3F	; 63
    2936:	9b 07       	cpc	r25, r27
    2938:	49 f1       	breq	.+82     	; 0x298c <pow+0x6e>
    293a:	68 94       	set
    293c:	90 38       	cpi	r25, 0x80	; 128
    293e:	81 05       	cpc	r24, r1
    2940:	61 f0       	breq	.+24     	; 0x295a <pow+0x3c>
    2942:	80 38       	cpi	r24, 0x80	; 128
    2944:	bf ef       	ldi	r27, 0xFF	; 255
    2946:	9b 07       	cpc	r25, r27
    2948:	41 f0       	breq	.+16     	; 0x295a <pow+0x3c>
    294a:	99 23       	and	r25, r25
    294c:	42 f5       	brpl	.+80     	; 0x299e <pow+0x80>
    294e:	ff 3f       	cpi	r31, 0xFF	; 255
    2950:	e1 05       	cpc	r30, r1
    2952:	31 05       	cpc	r19, r1
    2954:	21 05       	cpc	r18, r1
    2956:	11 f1       	breq	.+68     	; 0x299c <pow+0x7e>
    2958:	e8 94       	clt
    295a:	08 94       	sec
    295c:	e7 95       	ror	r30
    295e:	d9 01       	movw	r26, r18
    2960:	aa 23       	and	r26, r26
    2962:	29 f4       	brne	.+10     	; 0x296e <pow+0x50>
    2964:	ab 2f       	mov	r26, r27
    2966:	be 2f       	mov	r27, r30
    2968:	f8 5f       	subi	r31, 0xF8	; 248
    296a:	d0 f3       	brcs	.-12     	; 0x2960 <pow+0x42>
    296c:	10 c0       	rjmp	.+32     	; 0x298e <pow+0x70>
    296e:	ff 5f       	subi	r31, 0xFF	; 255
    2970:	70 f4       	brcc	.+28     	; 0x298e <pow+0x70>
    2972:	a6 95       	lsr	r26
    2974:	e0 f7       	brcc	.-8      	; 0x296e <pow+0x50>
    2976:	f7 39       	cpi	r31, 0x97	; 151
    2978:	50 f0       	brcs	.+20     	; 0x298e <pow+0x70>
    297a:	19 f0       	breq	.+6      	; 0x2982 <pow+0x64>
    297c:	ff 3a       	cpi	r31, 0xAF	; 175
    297e:	38 f4       	brcc	.+14     	; 0x298e <pow+0x70>
    2980:	9f 77       	andi	r25, 0x7F	; 127
    2982:	9f 93       	push	r25
    2984:	0c d0       	rcall	.+24     	; 0x299e <pow+0x80>
    2986:	0f 90       	pop	r0
    2988:	07 fc       	sbrc	r0, 7
    298a:	90 58       	subi	r25, 0x80	; 128
    298c:	08 95       	ret
    298e:	3e f0       	brts	.+14     	; 0x299e <pow+0x80>
    2990:	af ce       	rjmp	.-674    	; 0x26f0 <__fp_nan>
    2992:	60 e0       	ldi	r22, 0x00	; 0
    2994:	70 e0       	ldi	r23, 0x00	; 0
    2996:	80 e8       	ldi	r24, 0x80	; 128
    2998:	9f e3       	ldi	r25, 0x3F	; 63
    299a:	08 95       	ret
    299c:	4f e7       	ldi	r20, 0x7F	; 127
    299e:	9f 77       	andi	r25, 0x7F	; 127
    29a0:	5f 93       	push	r21
    29a2:	4f 93       	push	r20
    29a4:	3f 93       	push	r19
    29a6:	2f 93       	push	r18
    29a8:	03 d1       	rcall	.+518    	; 0x2bb0 <log>
    29aa:	2f 91       	pop	r18
    29ac:	3f 91       	pop	r19
    29ae:	4f 91       	pop	r20
    29b0:	5f 91       	pop	r21
    29b2:	52 df       	rcall	.-348    	; 0x2858 <__mulsf3>
    29b4:	70 c0       	rjmp	.+224    	; 0x2a96 <exp>

000029b6 <sin>:
    29b6:	9f 93       	push	r25
    29b8:	d2 de       	rcall	.-604    	; 0x275e <__fp_rempio2>
    29ba:	0f 90       	pop	r0
    29bc:	07 fc       	sbrc	r0, 7
    29be:	ee 5f       	subi	r30, 0xFE	; 254
    29c0:	06 cf       	rjmp	.-500    	; 0x27ce <__fp_sinus>
    29c2:	11 f4       	brne	.+4      	; 0x29c8 <sin+0x12>
    29c4:	0e f4       	brtc	.+2      	; 0x29c8 <sin+0x12>
    29c6:	94 ce       	rjmp	.-728    	; 0x26f0 <__fp_nan>
    29c8:	92 c0       	rjmp	.+292    	; 0x2aee <__fp_mpack>

000029ca <sqrt>:
    29ca:	1a df       	rcall	.-460    	; 0x2800 <__fp_splitA>
    29cc:	d0 f3       	brcs	.-12     	; 0x29c2 <sin+0xc>
    29ce:	99 23       	and	r25, r25
    29d0:	d9 f3       	breq	.-10     	; 0x29c8 <sin+0x12>
    29d2:	ce f3       	brts	.-14     	; 0x29c6 <sin+0x10>
    29d4:	9f 57       	subi	r25, 0x7F	; 127
    29d6:	55 0b       	sbc	r21, r21
    29d8:	87 ff       	sbrs	r24, 7
    29da:	97 d0       	rcall	.+302    	; 0x2b0a <__fp_norm2>
    29dc:	00 24       	eor	r0, r0
    29de:	a0 e6       	ldi	r26, 0x60	; 96
    29e0:	40 ea       	ldi	r20, 0xA0	; 160
    29e2:	90 01       	movw	r18, r0
    29e4:	80 58       	subi	r24, 0x80	; 128
    29e6:	56 95       	lsr	r21
    29e8:	97 95       	ror	r25
    29ea:	28 f4       	brcc	.+10     	; 0x29f6 <sqrt+0x2c>
    29ec:	80 5c       	subi	r24, 0xC0	; 192
    29ee:	66 0f       	add	r22, r22
    29f0:	77 1f       	adc	r23, r23
    29f2:	88 1f       	adc	r24, r24
    29f4:	20 f0       	brcs	.+8      	; 0x29fe <sqrt+0x34>
    29f6:	26 17       	cp	r18, r22
    29f8:	37 07       	cpc	r19, r23
    29fa:	48 07       	cpc	r20, r24
    29fc:	30 f4       	brcc	.+12     	; 0x2a0a <sqrt+0x40>
    29fe:	62 1b       	sub	r22, r18
    2a00:	73 0b       	sbc	r23, r19
    2a02:	84 0b       	sbc	r24, r20
    2a04:	20 29       	or	r18, r0
    2a06:	31 29       	or	r19, r1
    2a08:	4a 2b       	or	r20, r26
    2a0a:	a6 95       	lsr	r26
    2a0c:	17 94       	ror	r1
    2a0e:	07 94       	ror	r0
    2a10:	20 25       	eor	r18, r0
    2a12:	31 25       	eor	r19, r1
    2a14:	4a 27       	eor	r20, r26
    2a16:	58 f7       	brcc	.-42     	; 0x29ee <sqrt+0x24>
    2a18:	66 0f       	add	r22, r22
    2a1a:	77 1f       	adc	r23, r23
    2a1c:	88 1f       	adc	r24, r24
    2a1e:	20 f0       	brcs	.+8      	; 0x2a28 <sqrt+0x5e>
    2a20:	26 17       	cp	r18, r22
    2a22:	37 07       	cpc	r19, r23
    2a24:	48 07       	cpc	r20, r24
    2a26:	30 f4       	brcc	.+12     	; 0x2a34 <sqrt+0x6a>
    2a28:	62 0b       	sbc	r22, r18
    2a2a:	73 0b       	sbc	r23, r19
    2a2c:	84 0b       	sbc	r24, r20
    2a2e:	20 0d       	add	r18, r0
    2a30:	31 1d       	adc	r19, r1
    2a32:	41 1d       	adc	r20, r1
    2a34:	a0 95       	com	r26
    2a36:	81 f7       	brne	.-32     	; 0x2a18 <sqrt+0x4e>
    2a38:	b9 01       	movw	r22, r18
    2a3a:	84 2f       	mov	r24, r20
    2a3c:	91 58       	subi	r25, 0x81	; 129
    2a3e:	88 0f       	add	r24, r24
    2a40:	96 95       	lsr	r25
    2a42:	87 95       	ror	r24
    2a44:	08 95       	ret

00002a46 <square>:
    2a46:	9b 01       	movw	r18, r22
    2a48:	ac 01       	movw	r20, r24
    2a4a:	06 cf       	rjmp	.-500    	; 0x2858 <__mulsf3>

00002a4c <tan>:
    2a4c:	df 93       	push	r29
    2a4e:	d9 2f       	mov	r29, r25
    2a50:	86 de       	rcall	.-756    	; 0x275e <__fp_rempio2>
    2a52:	e6 95       	lsr	r30
    2a54:	d7 95       	ror	r29
    2a56:	2a ed       	ldi	r18, 0xDA	; 218
    2a58:	3f e0       	ldi	r19, 0x0F	; 15
    2a5a:	49 e4       	ldi	r20, 0x49	; 73
    2a5c:	5f e3       	ldi	r21, 0x3F	; 63
    2a5e:	b3 3a       	cpi	r27, 0xA3	; 163
    2a60:	62 07       	cpc	r22, r18
    2a62:	73 07       	cpc	r23, r19
    2a64:	84 07       	cpc	r24, r20
    2a66:	95 07       	cpc	r25, r21
    2a68:	d7 95       	ror	r29
    2a6a:	2a f0       	brmi	.+10     	; 0x2a76 <tan+0x2a>
    2a6c:	a2 ea       	ldi	r26, 0xA2	; 162
    2a6e:	49 ec       	ldi	r20, 0xC9	; 201
    2a70:	90 68       	ori	r25, 0x80	; 128
    2a72:	bc dc       	rcall	.-1672   	; 0x23ec <__addsf3x>
    2a74:	9b de       	rcall	.-714    	; 0x27ac <__fp_round>
    2a76:	e7 ed       	ldi	r30, 0xD7	; 215
    2a78:	f0 e0       	ldi	r31, 0x00	; 0
    2a7a:	4e d0       	rcall	.+156    	; 0x2b18 <__fp_powsodd>
    2a7c:	dd 0f       	add	r29, r29
    2a7e:	0b f0       	brvs	.+2      	; 0x2a82 <tan+0x36>
    2a80:	e4 de       	rcall	.-568    	; 0x284a <inverse>
    2a82:	dd 0f       	add	r29, r29
    2a84:	0b f4       	brvc	.+2      	; 0x2a88 <tan+0x3c>
    2a86:	90 58       	subi	r25, 0x80	; 128
    2a88:	df 91       	pop	r29
    2a8a:	08 95       	ret
    2a8c:	19 f4       	brne	.+6      	; 0x2a94 <tan+0x48>
    2a8e:	0e f0       	brts	.+2      	; 0x2a92 <tan+0x46>
    2a90:	29 ce       	rjmp	.-942    	; 0x26e4 <__fp_inf>
    2a92:	d0 ce       	rjmp	.-608    	; 0x2834 <__fp_zero>
    2a94:	2d ce       	rjmp	.-934    	; 0x26f0 <__fp_nan>

00002a96 <exp>:
    2a96:	b4 de       	rcall	.-664    	; 0x2800 <__fp_splitA>
    2a98:	c8 f3       	brcs	.-14     	; 0x2a8c <tan+0x40>
    2a9a:	96 38       	cpi	r25, 0x86	; 134
    2a9c:	c0 f7       	brcc	.-16     	; 0x2a8e <tan+0x42>
    2a9e:	07 f8       	bld	r0, 7
    2aa0:	0f 92       	push	r0
    2aa2:	e8 94       	clt
    2aa4:	2b e3       	ldi	r18, 0x3B	; 59
    2aa6:	3a ea       	ldi	r19, 0xAA	; 170
    2aa8:	48 eb       	ldi	r20, 0xB8	; 184
    2aaa:	5f e7       	ldi	r21, 0x7F	; 127
    2aac:	e3 de       	rcall	.-570    	; 0x2874 <__mulsf3_pse>
    2aae:	0f 92       	push	r0
    2ab0:	0f 92       	push	r0
    2ab2:	0f 92       	push	r0
    2ab4:	4d b7       	in	r20, 0x3d	; 61
    2ab6:	5e b7       	in	r21, 0x3e	; 62
    2ab8:	0f 92       	push	r0
    2aba:	ba d0       	rcall	.+372    	; 0x2c30 <modf>
    2abc:	ea ef       	ldi	r30, 0xFA	; 250
    2abe:	f0 e0       	ldi	r31, 0x00	; 0
    2ac0:	1a de       	rcall	.-972    	; 0x26f6 <__fp_powser>
    2ac2:	4f 91       	pop	r20
    2ac4:	5f 91       	pop	r21
    2ac6:	ef 91       	pop	r30
    2ac8:	ff 91       	pop	r31
    2aca:	e5 95       	asr	r30
    2acc:	ee 1f       	adc	r30, r30
    2ace:	ff 1f       	adc	r31, r31
    2ad0:	49 f0       	breq	.+18     	; 0x2ae4 <exp+0x4e>
    2ad2:	fe 57       	subi	r31, 0x7E	; 126
    2ad4:	e0 68       	ori	r30, 0x80	; 128
    2ad6:	44 27       	eor	r20, r20
    2ad8:	ee 0f       	add	r30, r30
    2ada:	44 1f       	adc	r20, r20
    2adc:	fa 95       	dec	r31
    2ade:	e1 f7       	brne	.-8      	; 0x2ad8 <exp+0x42>
    2ae0:	41 95       	neg	r20
    2ae2:	55 0b       	sbc	r21, r21
    2ae4:	2c d0       	rcall	.+88     	; 0x2b3e <ldexp>
    2ae6:	0f 90       	pop	r0
    2ae8:	07 fe       	sbrs	r0, 7
    2aea:	af ce       	rjmp	.-674    	; 0x284a <inverse>
    2aec:	08 95       	ret

00002aee <__fp_mpack>:
    2aee:	9f 3f       	cpi	r25, 0xFF	; 255
    2af0:	31 f0       	breq	.+12     	; 0x2afe <__fp_mpack_finite+0xc>

00002af2 <__fp_mpack_finite>:
    2af2:	91 50       	subi	r25, 0x01	; 1
    2af4:	20 f4       	brcc	.+8      	; 0x2afe <__fp_mpack_finite+0xc>
    2af6:	87 95       	ror	r24
    2af8:	77 95       	ror	r23
    2afa:	67 95       	ror	r22
    2afc:	b7 95       	ror	r27
    2afe:	88 0f       	add	r24, r24
    2b00:	91 1d       	adc	r25, r1
    2b02:	96 95       	lsr	r25
    2b04:	87 95       	ror	r24
    2b06:	97 f9       	bld	r25, 7
    2b08:	08 95       	ret

00002b0a <__fp_norm2>:
    2b0a:	91 50       	subi	r25, 0x01	; 1
    2b0c:	50 40       	sbci	r21, 0x00	; 0
    2b0e:	66 0f       	add	r22, r22
    2b10:	77 1f       	adc	r23, r23
    2b12:	88 1f       	adc	r24, r24
    2b14:	d2 f7       	brpl	.-12     	; 0x2b0a <__fp_norm2>
    2b16:	08 95       	ret

00002b18 <__fp_powsodd>:
    2b18:	9f 93       	push	r25
    2b1a:	8f 93       	push	r24
    2b1c:	7f 93       	push	r23
    2b1e:	6f 93       	push	r22
    2b20:	ff 93       	push	r31
    2b22:	ef 93       	push	r30
    2b24:	9b 01       	movw	r18, r22
    2b26:	ac 01       	movw	r20, r24
    2b28:	97 de       	rcall	.-722    	; 0x2858 <__mulsf3>
    2b2a:	ef 91       	pop	r30
    2b2c:	ff 91       	pop	r31
    2b2e:	e3 dd       	rcall	.-1082   	; 0x26f6 <__fp_powser>
    2b30:	2f 91       	pop	r18
    2b32:	3f 91       	pop	r19
    2b34:	4f 91       	pop	r20
    2b36:	5f 91       	pop	r21
    2b38:	8f ce       	rjmp	.-738    	; 0x2858 <__mulsf3>
    2b3a:	d4 cd       	rjmp	.-1112   	; 0x26e4 <__fp_inf>
    2b3c:	d8 cf       	rjmp	.-80     	; 0x2aee <__fp_mpack>

00002b3e <ldexp>:
    2b3e:	60 de       	rcall	.-832    	; 0x2800 <__fp_splitA>
    2b40:	e8 f3       	brcs	.-6      	; 0x2b3c <__fp_powsodd+0x24>
    2b42:	99 23       	and	r25, r25
    2b44:	d9 f3       	breq	.-10     	; 0x2b3c <__fp_powsodd+0x24>
    2b46:	94 0f       	add	r25, r20
    2b48:	51 1d       	adc	r21, r1
    2b4a:	bb f3       	brvs	.-18     	; 0x2b3a <__fp_powsodd+0x22>
    2b4c:	91 50       	subi	r25, 0x01	; 1
    2b4e:	50 40       	sbci	r21, 0x00	; 0
    2b50:	94 f0       	brlt	.+36     	; 0x2b76 <ldexp+0x38>
    2b52:	59 f0       	breq	.+22     	; 0x2b6a <ldexp+0x2c>
    2b54:	88 23       	and	r24, r24
    2b56:	32 f0       	brmi	.+12     	; 0x2b64 <ldexp+0x26>
    2b58:	66 0f       	add	r22, r22
    2b5a:	77 1f       	adc	r23, r23
    2b5c:	88 1f       	adc	r24, r24
    2b5e:	91 50       	subi	r25, 0x01	; 1
    2b60:	50 40       	sbci	r21, 0x00	; 0
    2b62:	c1 f7       	brne	.-16     	; 0x2b54 <ldexp+0x16>
    2b64:	9e 3f       	cpi	r25, 0xFE	; 254
    2b66:	51 05       	cpc	r21, r1
    2b68:	44 f7       	brge	.-48     	; 0x2b3a <__fp_powsodd+0x22>
    2b6a:	88 0f       	add	r24, r24
    2b6c:	91 1d       	adc	r25, r1
    2b6e:	96 95       	lsr	r25
    2b70:	87 95       	ror	r24
    2b72:	97 f9       	bld	r25, 7
    2b74:	08 95       	ret
    2b76:	5f 3f       	cpi	r21, 0xFF	; 255
    2b78:	ac f0       	brlt	.+42     	; 0x2ba4 <ldexp+0x66>
    2b7a:	98 3e       	cpi	r25, 0xE8	; 232
    2b7c:	9c f0       	brlt	.+38     	; 0x2ba4 <ldexp+0x66>
    2b7e:	bb 27       	eor	r27, r27
    2b80:	86 95       	lsr	r24
    2b82:	77 95       	ror	r23
    2b84:	67 95       	ror	r22
    2b86:	b7 95       	ror	r27
    2b88:	08 f4       	brcc	.+2      	; 0x2b8c <ldexp+0x4e>
    2b8a:	b1 60       	ori	r27, 0x01	; 1
    2b8c:	93 95       	inc	r25
    2b8e:	c1 f7       	brne	.-16     	; 0x2b80 <ldexp+0x42>
    2b90:	bb 0f       	add	r27, r27
    2b92:	58 f7       	brcc	.-42     	; 0x2b6a <ldexp+0x2c>
    2b94:	11 f4       	brne	.+4      	; 0x2b9a <ldexp+0x5c>
    2b96:	60 ff       	sbrs	r22, 0
    2b98:	e8 cf       	rjmp	.-48     	; 0x2b6a <ldexp+0x2c>
    2b9a:	6f 5f       	subi	r22, 0xFF	; 255
    2b9c:	7f 4f       	sbci	r23, 0xFF	; 255
    2b9e:	8f 4f       	sbci	r24, 0xFF	; 255
    2ba0:	9f 4f       	sbci	r25, 0xFF	; 255
    2ba2:	e3 cf       	rjmp	.-58     	; 0x2b6a <ldexp+0x2c>
    2ba4:	48 ce       	rjmp	.-880    	; 0x2836 <__fp_szero>
    2ba6:	0e f0       	brts	.+2      	; 0x2baa <ldexp+0x6c>
    2ba8:	a2 cf       	rjmp	.-188    	; 0x2aee <__fp_mpack>
    2baa:	a2 cd       	rjmp	.-1212   	; 0x26f0 <__fp_nan>
    2bac:	68 94       	set
    2bae:	9a cd       	rjmp	.-1228   	; 0x26e4 <__fp_inf>

00002bb0 <log>:
    2bb0:	27 de       	rcall	.-946    	; 0x2800 <__fp_splitA>
    2bb2:	c8 f3       	brcs	.-14     	; 0x2ba6 <ldexp+0x68>
    2bb4:	99 23       	and	r25, r25
    2bb6:	d1 f3       	breq	.-12     	; 0x2bac <ldexp+0x6e>
    2bb8:	c6 f3       	brts	.-16     	; 0x2baa <ldexp+0x6c>
    2bba:	df 93       	push	r29
    2bbc:	cf 93       	push	r28
    2bbe:	1f 93       	push	r17
    2bc0:	0f 93       	push	r16
    2bc2:	ff 92       	push	r15
    2bc4:	c9 2f       	mov	r28, r25
    2bc6:	dd 27       	eor	r29, r29
    2bc8:	88 23       	and	r24, r24
    2bca:	2a f0       	brmi	.+10     	; 0x2bd6 <log+0x26>
    2bcc:	21 97       	sbiw	r28, 0x01	; 1
    2bce:	66 0f       	add	r22, r22
    2bd0:	77 1f       	adc	r23, r23
    2bd2:	88 1f       	adc	r24, r24
    2bd4:	da f7       	brpl	.-10     	; 0x2bcc <log+0x1c>
    2bd6:	20 e0       	ldi	r18, 0x00	; 0
    2bd8:	30 e0       	ldi	r19, 0x00	; 0
    2bda:	40 e8       	ldi	r20, 0x80	; 128
    2bdc:	5f eb       	ldi	r21, 0xBF	; 191
    2bde:	9f e3       	ldi	r25, 0x3F	; 63
    2be0:	88 39       	cpi	r24, 0x98	; 152
    2be2:	20 f0       	brcs	.+8      	; 0x2bec <log+0x3c>
    2be4:	80 3e       	cpi	r24, 0xE0	; 224
    2be6:	30 f0       	brcs	.+12     	; 0x2bf4 <log+0x44>
    2be8:	21 96       	adiw	r28, 0x01	; 1
    2bea:	8f 77       	andi	r24, 0x7F	; 127
    2bec:	ee db       	rcall	.-2084   	; 0x23ca <__addsf3>
    2bee:	e2 e2       	ldi	r30, 0x22	; 34
    2bf0:	f1 e0       	ldi	r31, 0x01	; 1
    2bf2:	03 c0       	rjmp	.+6      	; 0x2bfa <log+0x4a>
    2bf4:	ea db       	rcall	.-2092   	; 0x23ca <__addsf3>
    2bf6:	ef e4       	ldi	r30, 0x4F	; 79
    2bf8:	f1 e0       	ldi	r31, 0x01	; 1
    2bfa:	7d dd       	rcall	.-1286   	; 0x26f6 <__fp_powser>
    2bfc:	8b 01       	movw	r16, r22
    2bfe:	be 01       	movw	r22, r28
    2c00:	ec 01       	movw	r28, r24
    2c02:	fb 2e       	mov	r15, r27
    2c04:	6f 57       	subi	r22, 0x7F	; 127
    2c06:	71 09       	sbc	r23, r1
    2c08:	75 95       	asr	r23
    2c0a:	77 1f       	adc	r23, r23
    2c0c:	88 0b       	sbc	r24, r24
    2c0e:	99 0b       	sbc	r25, r25
    2c10:	0a dd       	rcall	.-1516   	; 0x2626 <__floatsisf>
    2c12:	28 e1       	ldi	r18, 0x18	; 24
    2c14:	32 e7       	ldi	r19, 0x72	; 114
    2c16:	41 e3       	ldi	r20, 0x31	; 49
    2c18:	5f e3       	ldi	r21, 0x3F	; 63
    2c1a:	2a de       	rcall	.-940    	; 0x2870 <__mulsf3x>
    2c1c:	af 2d       	mov	r26, r15
    2c1e:	98 01       	movw	r18, r16
    2c20:	ae 01       	movw	r20, r28
    2c22:	ff 90       	pop	r15
    2c24:	0f 91       	pop	r16
    2c26:	1f 91       	pop	r17
    2c28:	cf 91       	pop	r28
    2c2a:	df 91       	pop	r29
    2c2c:	df db       	rcall	.-2114   	; 0x23ec <__addsf3x>
    2c2e:	be cd       	rjmp	.-1156   	; 0x27ac <__fp_round>

00002c30 <modf>:
    2c30:	fa 01       	movw	r30, r20
    2c32:	dc 01       	movw	r26, r24
    2c34:	aa 0f       	add	r26, r26
    2c36:	bb 1f       	adc	r27, r27
    2c38:	9b 01       	movw	r18, r22
    2c3a:	ac 01       	movw	r20, r24
    2c3c:	bf 57       	subi	r27, 0x7F	; 127
    2c3e:	28 f4       	brcc	.+10     	; 0x2c4a <modf+0x1a>
    2c40:	22 27       	eor	r18, r18
    2c42:	33 27       	eor	r19, r19
    2c44:	44 27       	eor	r20, r20
    2c46:	50 78       	andi	r21, 0x80	; 128
    2c48:	1f c0       	rjmp	.+62     	; 0x2c88 <modf+0x58>
    2c4a:	b7 51       	subi	r27, 0x17	; 23
    2c4c:	88 f4       	brcc	.+34     	; 0x2c70 <modf+0x40>
    2c4e:	ab 2f       	mov	r26, r27
    2c50:	00 24       	eor	r0, r0
    2c52:	46 95       	lsr	r20
    2c54:	37 95       	ror	r19
    2c56:	27 95       	ror	r18
    2c58:	01 1c       	adc	r0, r1
    2c5a:	a3 95       	inc	r26
    2c5c:	d2 f3       	brmi	.-12     	; 0x2c52 <modf+0x22>
    2c5e:	00 20       	and	r0, r0
    2c60:	69 f0       	breq	.+26     	; 0x2c7c <modf+0x4c>
    2c62:	22 0f       	add	r18, r18
    2c64:	33 1f       	adc	r19, r19
    2c66:	44 1f       	adc	r20, r20
    2c68:	b3 95       	inc	r27
    2c6a:	da f3       	brmi	.-10     	; 0x2c62 <modf+0x32>
    2c6c:	0d d0       	rcall	.+26     	; 0x2c88 <modf+0x58>
    2c6e:	ac cb       	rjmp	.-2216   	; 0x23c8 <__subsf3>
    2c70:	61 30       	cpi	r22, 0x01	; 1
    2c72:	71 05       	cpc	r23, r1
    2c74:	a0 e8       	ldi	r26, 0x80	; 128
    2c76:	8a 07       	cpc	r24, r26
    2c78:	b9 46       	sbci	r27, 0x69	; 105
    2c7a:	30 f4       	brcc	.+12     	; 0x2c88 <modf+0x58>
    2c7c:	9b 01       	movw	r18, r22
    2c7e:	ac 01       	movw	r20, r24
    2c80:	66 27       	eor	r22, r22
    2c82:	77 27       	eor	r23, r23
    2c84:	88 27       	eor	r24, r24
    2c86:	90 78       	andi	r25, 0x80	; 128
    2c88:	30 96       	adiw	r30, 0x00	; 0
    2c8a:	21 f0       	breq	.+8      	; 0x2c94 <modf+0x64>
    2c8c:	20 83       	st	Z, r18
    2c8e:	31 83       	std	Z+1, r19	; 0x01
    2c90:	42 83       	std	Z+2, r20	; 0x02
    2c92:	53 83       	std	Z+3, r21	; 0x03
    2c94:	08 95       	ret

00002c96 <vfprintf>:
    2c96:	2f 92       	push	r2
    2c98:	3f 92       	push	r3
    2c9a:	4f 92       	push	r4
    2c9c:	5f 92       	push	r5
    2c9e:	6f 92       	push	r6
    2ca0:	7f 92       	push	r7
    2ca2:	8f 92       	push	r8
    2ca4:	9f 92       	push	r9
    2ca6:	af 92       	push	r10
    2ca8:	bf 92       	push	r11
    2caa:	cf 92       	push	r12
    2cac:	df 92       	push	r13
    2cae:	ef 92       	push	r14
    2cb0:	ff 92       	push	r15
    2cb2:	0f 93       	push	r16
    2cb4:	1f 93       	push	r17
    2cb6:	cf 93       	push	r28
    2cb8:	df 93       	push	r29
    2cba:	cd b7       	in	r28, 0x3d	; 61
    2cbc:	de b7       	in	r29, 0x3e	; 62
    2cbe:	63 97       	sbiw	r28, 0x13	; 19
    2cc0:	0f b6       	in	r0, 0x3f	; 63
    2cc2:	f8 94       	cli
    2cc4:	de bf       	out	0x3e, r29	; 62
    2cc6:	0f be       	out	0x3f, r0	; 63
    2cc8:	cd bf       	out	0x3d, r28	; 61
    2cca:	6c 01       	movw	r12, r24
    2ccc:	4b 01       	movw	r8, r22
    2cce:	2a 01       	movw	r4, r20
    2cd0:	fc 01       	movw	r30, r24
    2cd2:	17 82       	std	Z+7, r1	; 0x07
    2cd4:	16 82       	std	Z+6, r1	; 0x06
    2cd6:	83 81       	ldd	r24, Z+3	; 0x03
    2cd8:	81 ff       	sbrs	r24, 1
    2cda:	29 c3       	rjmp	.+1618   	; 0x332e <vfprintf+0x698>
    2cdc:	ae 01       	movw	r20, r28
    2cde:	4f 5f       	subi	r20, 0xFF	; 255
    2ce0:	5f 4f       	sbci	r21, 0xFF	; 255
    2ce2:	3a 01       	movw	r6, r20
    2ce4:	f6 01       	movw	r30, r12
    2ce6:	93 81       	ldd	r25, Z+3	; 0x03
    2ce8:	f4 01       	movw	r30, r8
    2cea:	93 fd       	sbrc	r25, 3
    2cec:	85 91       	lpm	r24, Z+
    2cee:	93 ff       	sbrs	r25, 3
    2cf0:	81 91       	ld	r24, Z+
    2cf2:	4f 01       	movw	r8, r30
    2cf4:	88 23       	and	r24, r24
    2cf6:	09 f4       	brne	.+2      	; 0x2cfa <vfprintf+0x64>
    2cf8:	16 c3       	rjmp	.+1580   	; 0x3326 <vfprintf+0x690>
    2cfa:	85 32       	cpi	r24, 0x25	; 37
    2cfc:	39 f4       	brne	.+14     	; 0x2d0c <vfprintf+0x76>
    2cfe:	93 fd       	sbrc	r25, 3
    2d00:	85 91       	lpm	r24, Z+
    2d02:	93 ff       	sbrs	r25, 3
    2d04:	81 91       	ld	r24, Z+
    2d06:	4f 01       	movw	r8, r30
    2d08:	85 32       	cpi	r24, 0x25	; 37
    2d0a:	31 f4       	brne	.+12     	; 0x2d18 <vfprintf+0x82>
    2d0c:	b6 01       	movw	r22, r12
    2d0e:	90 e0       	ldi	r25, 0x00	; 0
    2d10:	ad d5       	rcall	.+2906   	; 0x386c <fputc>
    2d12:	52 01       	movw	r10, r4
    2d14:	25 01       	movw	r4, r10
    2d16:	e6 cf       	rjmp	.-52     	; 0x2ce4 <vfprintf+0x4e>
    2d18:	10 e0       	ldi	r17, 0x00	; 0
    2d1a:	f1 2c       	mov	r15, r1
    2d1c:	20 e0       	ldi	r18, 0x00	; 0
    2d1e:	20 32       	cpi	r18, 0x20	; 32
    2d20:	a0 f4       	brcc	.+40     	; 0x2d4a <vfprintf+0xb4>
    2d22:	8b 32       	cpi	r24, 0x2B	; 43
    2d24:	69 f0       	breq	.+26     	; 0x2d40 <vfprintf+0xaa>
    2d26:	30 f4       	brcc	.+12     	; 0x2d34 <vfprintf+0x9e>
    2d28:	80 32       	cpi	r24, 0x20	; 32
    2d2a:	59 f0       	breq	.+22     	; 0x2d42 <vfprintf+0xac>
    2d2c:	83 32       	cpi	r24, 0x23	; 35
    2d2e:	69 f4       	brne	.+26     	; 0x2d4a <vfprintf+0xb4>
    2d30:	20 61       	ori	r18, 0x10	; 16
    2d32:	2c c0       	rjmp	.+88     	; 0x2d8c <vfprintf+0xf6>
    2d34:	8d 32       	cpi	r24, 0x2D	; 45
    2d36:	39 f0       	breq	.+14     	; 0x2d46 <vfprintf+0xb0>
    2d38:	80 33       	cpi	r24, 0x30	; 48
    2d3a:	39 f4       	brne	.+14     	; 0x2d4a <vfprintf+0xb4>
    2d3c:	21 60       	ori	r18, 0x01	; 1
    2d3e:	26 c0       	rjmp	.+76     	; 0x2d8c <vfprintf+0xf6>
    2d40:	22 60       	ori	r18, 0x02	; 2
    2d42:	24 60       	ori	r18, 0x04	; 4
    2d44:	23 c0       	rjmp	.+70     	; 0x2d8c <vfprintf+0xf6>
    2d46:	28 60       	ori	r18, 0x08	; 8
    2d48:	21 c0       	rjmp	.+66     	; 0x2d8c <vfprintf+0xf6>
    2d4a:	27 fd       	sbrc	r18, 7
    2d4c:	27 c0       	rjmp	.+78     	; 0x2d9c <vfprintf+0x106>
    2d4e:	30 ed       	ldi	r19, 0xD0	; 208
    2d50:	38 0f       	add	r19, r24
    2d52:	3a 30       	cpi	r19, 0x0A	; 10
    2d54:	78 f4       	brcc	.+30     	; 0x2d74 <vfprintf+0xde>
    2d56:	26 ff       	sbrs	r18, 6
    2d58:	06 c0       	rjmp	.+12     	; 0x2d66 <vfprintf+0xd0>
    2d5a:	fa e0       	ldi	r31, 0x0A	; 10
    2d5c:	1f 9f       	mul	r17, r31
    2d5e:	30 0d       	add	r19, r0
    2d60:	11 24       	eor	r1, r1
    2d62:	13 2f       	mov	r17, r19
    2d64:	13 c0       	rjmp	.+38     	; 0x2d8c <vfprintf+0xf6>
    2d66:	4a e0       	ldi	r20, 0x0A	; 10
    2d68:	f4 9e       	mul	r15, r20
    2d6a:	30 0d       	add	r19, r0
    2d6c:	11 24       	eor	r1, r1
    2d6e:	f3 2e       	mov	r15, r19
    2d70:	20 62       	ori	r18, 0x20	; 32
    2d72:	0c c0       	rjmp	.+24     	; 0x2d8c <vfprintf+0xf6>
    2d74:	8e 32       	cpi	r24, 0x2E	; 46
    2d76:	21 f4       	brne	.+8      	; 0x2d80 <vfprintf+0xea>
    2d78:	26 fd       	sbrc	r18, 6
    2d7a:	d5 c2       	rjmp	.+1450   	; 0x3326 <vfprintf+0x690>
    2d7c:	20 64       	ori	r18, 0x40	; 64
    2d7e:	06 c0       	rjmp	.+12     	; 0x2d8c <vfprintf+0xf6>
    2d80:	8c 36       	cpi	r24, 0x6C	; 108
    2d82:	11 f4       	brne	.+4      	; 0x2d88 <vfprintf+0xf2>
    2d84:	20 68       	ori	r18, 0x80	; 128
    2d86:	02 c0       	rjmp	.+4      	; 0x2d8c <vfprintf+0xf6>
    2d88:	88 36       	cpi	r24, 0x68	; 104
    2d8a:	41 f4       	brne	.+16     	; 0x2d9c <vfprintf+0x106>
    2d8c:	f4 01       	movw	r30, r8
    2d8e:	93 fd       	sbrc	r25, 3
    2d90:	85 91       	lpm	r24, Z+
    2d92:	93 ff       	sbrs	r25, 3
    2d94:	81 91       	ld	r24, Z+
    2d96:	4f 01       	movw	r8, r30
    2d98:	81 11       	cpse	r24, r1
    2d9a:	c1 cf       	rjmp	.-126    	; 0x2d1e <vfprintf+0x88>
    2d9c:	9b eb       	ldi	r25, 0xBB	; 187
    2d9e:	98 0f       	add	r25, r24
    2da0:	93 30       	cpi	r25, 0x03	; 3
    2da2:	18 f4       	brcc	.+6      	; 0x2daa <vfprintf+0x114>
    2da4:	20 61       	ori	r18, 0x10	; 16
    2da6:	80 5e       	subi	r24, 0xE0	; 224
    2da8:	06 c0       	rjmp	.+12     	; 0x2db6 <vfprintf+0x120>
    2daa:	9b e9       	ldi	r25, 0x9B	; 155
    2dac:	98 0f       	add	r25, r24
    2dae:	93 30       	cpi	r25, 0x03	; 3
    2db0:	08 f0       	brcs	.+2      	; 0x2db4 <vfprintf+0x11e>
    2db2:	64 c1       	rjmp	.+712    	; 0x307c <vfprintf+0x3e6>
    2db4:	2f 7e       	andi	r18, 0xEF	; 239
    2db6:	26 ff       	sbrs	r18, 6
    2db8:	16 e0       	ldi	r17, 0x06	; 6
    2dba:	2f 73       	andi	r18, 0x3F	; 63
    2dbc:	32 2e       	mov	r3, r18
    2dbe:	85 36       	cpi	r24, 0x65	; 101
    2dc0:	19 f4       	brne	.+6      	; 0x2dc8 <vfprintf+0x132>
    2dc2:	20 64       	ori	r18, 0x40	; 64
    2dc4:	32 2e       	mov	r3, r18
    2dc6:	08 c0       	rjmp	.+16     	; 0x2dd8 <vfprintf+0x142>
    2dc8:	86 36       	cpi	r24, 0x66	; 102
    2dca:	21 f4       	brne	.+8      	; 0x2dd4 <vfprintf+0x13e>
    2dcc:	f2 2f       	mov	r31, r18
    2dce:	f0 68       	ori	r31, 0x80	; 128
    2dd0:	3f 2e       	mov	r3, r31
    2dd2:	02 c0       	rjmp	.+4      	; 0x2dd8 <vfprintf+0x142>
    2dd4:	11 11       	cpse	r17, r1
    2dd6:	11 50       	subi	r17, 0x01	; 1
    2dd8:	37 fe       	sbrs	r3, 7
    2dda:	07 c0       	rjmp	.+14     	; 0x2dea <vfprintf+0x154>
    2ddc:	1c 33       	cpi	r17, 0x3C	; 60
    2dde:	50 f4       	brcc	.+20     	; 0x2df4 <vfprintf+0x15e>
    2de0:	ee 24       	eor	r14, r14
    2de2:	e3 94       	inc	r14
    2de4:	e1 0e       	add	r14, r17
    2de6:	27 e0       	ldi	r18, 0x07	; 7
    2de8:	0b c0       	rjmp	.+22     	; 0x2e00 <vfprintf+0x16a>
    2dea:	18 30       	cpi	r17, 0x08	; 8
    2dec:	38 f0       	brcs	.+14     	; 0x2dfc <vfprintf+0x166>
    2dee:	27 e0       	ldi	r18, 0x07	; 7
    2df0:	17 e0       	ldi	r17, 0x07	; 7
    2df2:	05 c0       	rjmp	.+10     	; 0x2dfe <vfprintf+0x168>
    2df4:	27 e0       	ldi	r18, 0x07	; 7
    2df6:	4c e3       	ldi	r20, 0x3C	; 60
    2df8:	e4 2e       	mov	r14, r20
    2dfa:	02 c0       	rjmp	.+4      	; 0x2e00 <vfprintf+0x16a>
    2dfc:	21 2f       	mov	r18, r17
    2dfe:	e1 2c       	mov	r14, r1
    2e00:	52 01       	movw	r10, r4
    2e02:	44 e0       	ldi	r20, 0x04	; 4
    2e04:	a4 0e       	add	r10, r20
    2e06:	b1 1c       	adc	r11, r1
    2e08:	f2 01       	movw	r30, r4
    2e0a:	60 81       	ld	r22, Z
    2e0c:	71 81       	ldd	r23, Z+1	; 0x01
    2e0e:	82 81       	ldd	r24, Z+2	; 0x02
    2e10:	93 81       	ldd	r25, Z+3	; 0x03
    2e12:	0e 2d       	mov	r16, r14
    2e14:	a3 01       	movw	r20, r6
    2e16:	35 d4       	rcall	.+2154   	; 0x3682 <__ftoa_engine>
    2e18:	2c 01       	movw	r4, r24
    2e1a:	09 81       	ldd	r16, Y+1	; 0x01
    2e1c:	00 ff       	sbrs	r16, 0
    2e1e:	02 c0       	rjmp	.+4      	; 0x2e24 <vfprintf+0x18e>
    2e20:	03 ff       	sbrs	r16, 3
    2e22:	07 c0       	rjmp	.+14     	; 0x2e32 <vfprintf+0x19c>
    2e24:	31 fc       	sbrc	r3, 1
    2e26:	08 c0       	rjmp	.+16     	; 0x2e38 <vfprintf+0x1a2>
    2e28:	32 fe       	sbrs	r3, 2
    2e2a:	09 c0       	rjmp	.+18     	; 0x2e3e <vfprintf+0x1a8>
    2e2c:	30 e2       	ldi	r19, 0x20	; 32
    2e2e:	23 2e       	mov	r2, r19
    2e30:	07 c0       	rjmp	.+14     	; 0x2e40 <vfprintf+0x1aa>
    2e32:	2d e2       	ldi	r18, 0x2D	; 45
    2e34:	22 2e       	mov	r2, r18
    2e36:	04 c0       	rjmp	.+8      	; 0x2e40 <vfprintf+0x1aa>
    2e38:	9b e2       	ldi	r25, 0x2B	; 43
    2e3a:	29 2e       	mov	r2, r25
    2e3c:	01 c0       	rjmp	.+2      	; 0x2e40 <vfprintf+0x1aa>
    2e3e:	21 2c       	mov	r2, r1
    2e40:	80 2f       	mov	r24, r16
    2e42:	8c 70       	andi	r24, 0x0C	; 12
    2e44:	19 f0       	breq	.+6      	; 0x2e4c <vfprintf+0x1b6>
    2e46:	21 10       	cpse	r2, r1
    2e48:	51 c2       	rjmp	.+1186   	; 0x32ec <vfprintf+0x656>
    2e4a:	8d c2       	rjmp	.+1306   	; 0x3366 <vfprintf+0x6d0>
    2e4c:	37 fe       	sbrs	r3, 7
    2e4e:	0f c0       	rjmp	.+30     	; 0x2e6e <vfprintf+0x1d8>
    2e50:	e4 0c       	add	r14, r4
    2e52:	04 ff       	sbrs	r16, 4
    2e54:	04 c0       	rjmp	.+8      	; 0x2e5e <vfprintf+0x1c8>
    2e56:	8a 81       	ldd	r24, Y+2	; 0x02
    2e58:	81 33       	cpi	r24, 0x31	; 49
    2e5a:	09 f4       	brne	.+2      	; 0x2e5e <vfprintf+0x1c8>
    2e5c:	ea 94       	dec	r14
    2e5e:	1e 14       	cp	r1, r14
    2e60:	74 f5       	brge	.+92     	; 0x2ebe <vfprintf+0x228>
    2e62:	f8 e0       	ldi	r31, 0x08	; 8
    2e64:	fe 15       	cp	r31, r14
    2e66:	78 f5       	brcc	.+94     	; 0x2ec6 <vfprintf+0x230>
    2e68:	88 e0       	ldi	r24, 0x08	; 8
    2e6a:	e8 2e       	mov	r14, r24
    2e6c:	2c c0       	rjmp	.+88     	; 0x2ec6 <vfprintf+0x230>
    2e6e:	36 fc       	sbrc	r3, 6
    2e70:	2a c0       	rjmp	.+84     	; 0x2ec6 <vfprintf+0x230>
    2e72:	81 2f       	mov	r24, r17
    2e74:	90 e0       	ldi	r25, 0x00	; 0
    2e76:	84 15       	cp	r24, r4
    2e78:	95 05       	cpc	r25, r5
    2e7a:	9c f0       	brlt	.+38     	; 0x2ea2 <vfprintf+0x20c>
    2e7c:	2c ef       	ldi	r18, 0xFC	; 252
    2e7e:	42 16       	cp	r4, r18
    2e80:	2f ef       	ldi	r18, 0xFF	; 255
    2e82:	52 06       	cpc	r5, r18
    2e84:	74 f0       	brlt	.+28     	; 0x2ea2 <vfprintf+0x20c>
    2e86:	43 2d       	mov	r20, r3
    2e88:	40 68       	ori	r20, 0x80	; 128
    2e8a:	34 2e       	mov	r3, r20
    2e8c:	0a c0       	rjmp	.+20     	; 0x2ea2 <vfprintf+0x20c>
    2e8e:	e2 e0       	ldi	r30, 0x02	; 2
    2e90:	f0 e0       	ldi	r31, 0x00	; 0
    2e92:	ec 0f       	add	r30, r28
    2e94:	fd 1f       	adc	r31, r29
    2e96:	e1 0f       	add	r30, r17
    2e98:	f1 1d       	adc	r31, r1
    2e9a:	80 81       	ld	r24, Z
    2e9c:	80 33       	cpi	r24, 0x30	; 48
    2e9e:	19 f4       	brne	.+6      	; 0x2ea6 <vfprintf+0x210>
    2ea0:	11 50       	subi	r17, 0x01	; 1
    2ea2:	11 11       	cpse	r17, r1
    2ea4:	f4 cf       	rjmp	.-24     	; 0x2e8e <vfprintf+0x1f8>
    2ea6:	37 fe       	sbrs	r3, 7
    2ea8:	0e c0       	rjmp	.+28     	; 0x2ec6 <vfprintf+0x230>
    2eaa:	ee 24       	eor	r14, r14
    2eac:	e3 94       	inc	r14
    2eae:	e1 0e       	add	r14, r17
    2eb0:	81 2f       	mov	r24, r17
    2eb2:	90 e0       	ldi	r25, 0x00	; 0
    2eb4:	48 16       	cp	r4, r24
    2eb6:	59 06       	cpc	r5, r25
    2eb8:	2c f4       	brge	.+10     	; 0x2ec4 <vfprintf+0x22e>
    2eba:	14 19       	sub	r17, r4
    2ebc:	04 c0       	rjmp	.+8      	; 0x2ec6 <vfprintf+0x230>
    2ebe:	ee 24       	eor	r14, r14
    2ec0:	e3 94       	inc	r14
    2ec2:	01 c0       	rjmp	.+2      	; 0x2ec6 <vfprintf+0x230>
    2ec4:	10 e0       	ldi	r17, 0x00	; 0
    2ec6:	37 fe       	sbrs	r3, 7
    2ec8:	06 c0       	rjmp	.+12     	; 0x2ed6 <vfprintf+0x240>
    2eca:	14 14       	cp	r1, r4
    2ecc:	15 04       	cpc	r1, r5
    2ece:	34 f4       	brge	.+12     	; 0x2edc <vfprintf+0x246>
    2ed0:	c2 01       	movw	r24, r4
    2ed2:	01 96       	adiw	r24, 0x01	; 1
    2ed4:	05 c0       	rjmp	.+10     	; 0x2ee0 <vfprintf+0x24a>
    2ed6:	85 e0       	ldi	r24, 0x05	; 5
    2ed8:	90 e0       	ldi	r25, 0x00	; 0
    2eda:	02 c0       	rjmp	.+4      	; 0x2ee0 <vfprintf+0x24a>
    2edc:	81 e0       	ldi	r24, 0x01	; 1
    2ede:	90 e0       	ldi	r25, 0x00	; 0
    2ee0:	21 10       	cpse	r2, r1
    2ee2:	01 96       	adiw	r24, 0x01	; 1
    2ee4:	11 23       	and	r17, r17
    2ee6:	31 f0       	breq	.+12     	; 0x2ef4 <vfprintf+0x25e>
    2ee8:	21 2f       	mov	r18, r17
    2eea:	30 e0       	ldi	r19, 0x00	; 0
    2eec:	2f 5f       	subi	r18, 0xFF	; 255
    2eee:	3f 4f       	sbci	r19, 0xFF	; 255
    2ef0:	82 0f       	add	r24, r18
    2ef2:	93 1f       	adc	r25, r19
    2ef4:	2f 2d       	mov	r18, r15
    2ef6:	30 e0       	ldi	r19, 0x00	; 0
    2ef8:	82 17       	cp	r24, r18
    2efa:	93 07       	cpc	r25, r19
    2efc:	14 f4       	brge	.+4      	; 0x2f02 <vfprintf+0x26c>
    2efe:	f8 1a       	sub	r15, r24
    2f00:	01 c0       	rjmp	.+2      	; 0x2f04 <vfprintf+0x26e>
    2f02:	f1 2c       	mov	r15, r1
    2f04:	83 2d       	mov	r24, r3
    2f06:	89 70       	andi	r24, 0x09	; 9
    2f08:	41 f4       	brne	.+16     	; 0x2f1a <vfprintf+0x284>
    2f0a:	ff 20       	and	r15, r15
    2f0c:	31 f0       	breq	.+12     	; 0x2f1a <vfprintf+0x284>
    2f0e:	b6 01       	movw	r22, r12
    2f10:	80 e2       	ldi	r24, 0x20	; 32
    2f12:	90 e0       	ldi	r25, 0x00	; 0
    2f14:	ab d4       	rcall	.+2390   	; 0x386c <fputc>
    2f16:	fa 94       	dec	r15
    2f18:	f8 cf       	rjmp	.-16     	; 0x2f0a <vfprintf+0x274>
    2f1a:	22 20       	and	r2, r2
    2f1c:	21 f0       	breq	.+8      	; 0x2f26 <vfprintf+0x290>
    2f1e:	b6 01       	movw	r22, r12
    2f20:	82 2d       	mov	r24, r2
    2f22:	90 e0       	ldi	r25, 0x00	; 0
    2f24:	a3 d4       	rcall	.+2374   	; 0x386c <fputc>
    2f26:	33 fc       	sbrc	r3, 3
    2f28:	08 c0       	rjmp	.+16     	; 0x2f3a <vfprintf+0x2a4>
    2f2a:	ff 20       	and	r15, r15
    2f2c:	31 f0       	breq	.+12     	; 0x2f3a <vfprintf+0x2a4>
    2f2e:	b6 01       	movw	r22, r12
    2f30:	80 e3       	ldi	r24, 0x30	; 48
    2f32:	90 e0       	ldi	r25, 0x00	; 0
    2f34:	9b d4       	rcall	.+2358   	; 0x386c <fputc>
    2f36:	fa 94       	dec	r15
    2f38:	f8 cf       	rjmp	.-16     	; 0x2f2a <vfprintf+0x294>
    2f3a:	37 fe       	sbrs	r3, 7
    2f3c:	58 c0       	rjmp	.+176    	; 0x2fee <vfprintf+0x358>
    2f3e:	94 2d       	mov	r25, r4
    2f40:	85 2d       	mov	r24, r5
    2f42:	57 fe       	sbrs	r5, 7
    2f44:	02 c0       	rjmp	.+4      	; 0x2f4a <vfprintf+0x2b4>
    2f46:	90 e0       	ldi	r25, 0x00	; 0
    2f48:	80 e0       	ldi	r24, 0x00	; 0
    2f4a:	29 2e       	mov	r2, r25
    2f4c:	38 2e       	mov	r3, r24
    2f4e:	20 e0       	ldi	r18, 0x00	; 0
    2f50:	30 e0       	ldi	r19, 0x00	; 0
    2f52:	a2 01       	movw	r20, r4
    2f54:	4e 19       	sub	r20, r14
    2f56:	51 09       	sbc	r21, r1
    2f58:	5d 87       	std	Y+13, r21	; 0x0d
    2f5a:	4c 87       	std	Y+12, r20	; 0x0c
    2f5c:	a2 01       	movw	r20, r4
    2f5e:	42 19       	sub	r20, r2
    2f60:	53 09       	sbc	r21, r3
    2f62:	5f 87       	std	Y+15, r21	; 0x0f
    2f64:	4e 87       	std	Y+14, r20	; 0x0e
    2f66:	61 2f       	mov	r22, r17
    2f68:	70 e0       	ldi	r23, 0x00	; 0
    2f6a:	44 27       	eor	r20, r20
    2f6c:	55 27       	eor	r21, r21
    2f6e:	46 1b       	sub	r20, r22
    2f70:	57 0b       	sbc	r21, r23
    2f72:	59 8b       	std	Y+17, r21	; 0x11
    2f74:	48 8b       	std	Y+16, r20	; 0x10
    2f76:	5f ef       	ldi	r21, 0xFF	; 255
    2f78:	25 16       	cp	r2, r21
    2f7a:	35 06       	cpc	r3, r21
    2f7c:	41 f4       	brne	.+16     	; 0x2f8e <vfprintf+0x2f8>
    2f7e:	b6 01       	movw	r22, r12
    2f80:	8e e2       	ldi	r24, 0x2E	; 46
    2f82:	90 e0       	ldi	r25, 0x00	; 0
    2f84:	2a 8b       	std	Y+18, r18	; 0x12
    2f86:	3b 8b       	std	Y+19, r19	; 0x13
    2f88:	71 d4       	rcall	.+2274   	; 0x386c <fputc>
    2f8a:	3b 89       	ldd	r19, Y+19	; 0x13
    2f8c:	2a 89       	ldd	r18, Y+18	; 0x12
    2f8e:	42 14       	cp	r4, r2
    2f90:	53 04       	cpc	r5, r3
    2f92:	6c f0       	brlt	.+26     	; 0x2fae <vfprintf+0x318>
    2f94:	4c 85       	ldd	r20, Y+12	; 0x0c
    2f96:	5d 85       	ldd	r21, Y+13	; 0x0d
    2f98:	42 15       	cp	r20, r2
    2f9a:	53 05       	cpc	r21, r3
    2f9c:	44 f4       	brge	.+16     	; 0x2fae <vfprintf+0x318>
    2f9e:	ee 85       	ldd	r30, Y+14	; 0x0e
    2fa0:	ff 85       	ldd	r31, Y+15	; 0x0f
    2fa2:	e2 0f       	add	r30, r18
    2fa4:	f3 1f       	adc	r31, r19
    2fa6:	e6 0d       	add	r30, r6
    2fa8:	f7 1d       	adc	r31, r7
    2faa:	81 81       	ldd	r24, Z+1	; 0x01
    2fac:	01 c0       	rjmp	.+2      	; 0x2fb0 <vfprintf+0x31a>
    2fae:	80 e3       	ldi	r24, 0x30	; 48
    2fb0:	51 e0       	ldi	r21, 0x01	; 1
    2fb2:	25 1a       	sub	r2, r21
    2fb4:	31 08       	sbc	r3, r1
    2fb6:	2f 5f       	subi	r18, 0xFF	; 255
    2fb8:	3f 4f       	sbci	r19, 0xFF	; 255
    2fba:	48 89       	ldd	r20, Y+16	; 0x10
    2fbc:	59 89       	ldd	r21, Y+17	; 0x11
    2fbe:	24 16       	cp	r2, r20
    2fc0:	35 06       	cpc	r3, r21
    2fc2:	44 f0       	brlt	.+16     	; 0x2fd4 <vfprintf+0x33e>
    2fc4:	b6 01       	movw	r22, r12
    2fc6:	90 e0       	ldi	r25, 0x00	; 0
    2fc8:	2a 8b       	std	Y+18, r18	; 0x12
    2fca:	3b 8b       	std	Y+19, r19	; 0x13
    2fcc:	4f d4       	rcall	.+2206   	; 0x386c <fputc>
    2fce:	2a 89       	ldd	r18, Y+18	; 0x12
    2fd0:	3b 89       	ldd	r19, Y+19	; 0x13
    2fd2:	d1 cf       	rjmp	.-94     	; 0x2f76 <vfprintf+0x2e0>
    2fd4:	24 14       	cp	r2, r4
    2fd6:	35 04       	cpc	r3, r5
    2fd8:	39 f4       	brne	.+14     	; 0x2fe8 <vfprintf+0x352>
    2fda:	9a 81       	ldd	r25, Y+2	; 0x02
    2fdc:	96 33       	cpi	r25, 0x36	; 54
    2fde:	18 f4       	brcc	.+6      	; 0x2fe6 <vfprintf+0x350>
    2fe0:	95 33       	cpi	r25, 0x35	; 53
    2fe2:	11 f4       	brne	.+4      	; 0x2fe8 <vfprintf+0x352>
    2fe4:	04 ff       	sbrs	r16, 4
    2fe6:	81 e3       	ldi	r24, 0x31	; 49
    2fe8:	b6 01       	movw	r22, r12
    2fea:	90 e0       	ldi	r25, 0x00	; 0
    2fec:	45 c0       	rjmp	.+138    	; 0x3078 <vfprintf+0x3e2>
    2fee:	8a 81       	ldd	r24, Y+2	; 0x02
    2ff0:	81 33       	cpi	r24, 0x31	; 49
    2ff2:	09 f0       	breq	.+2      	; 0x2ff6 <vfprintf+0x360>
    2ff4:	0f 7e       	andi	r16, 0xEF	; 239
    2ff6:	b6 01       	movw	r22, r12
    2ff8:	90 e0       	ldi	r25, 0x00	; 0
    2ffa:	38 d4       	rcall	.+2160   	; 0x386c <fputc>
    2ffc:	11 11       	cpse	r17, r1
    2ffe:	05 c0       	rjmp	.+10     	; 0x300a <vfprintf+0x374>
    3000:	34 fc       	sbrc	r3, 4
    3002:	16 c0       	rjmp	.+44     	; 0x3030 <vfprintf+0x39a>
    3004:	85 e6       	ldi	r24, 0x65	; 101
    3006:	90 e0       	ldi	r25, 0x00	; 0
    3008:	15 c0       	rjmp	.+42     	; 0x3034 <vfprintf+0x39e>
    300a:	b6 01       	movw	r22, r12
    300c:	8e e2       	ldi	r24, 0x2E	; 46
    300e:	90 e0       	ldi	r25, 0x00	; 0
    3010:	2d d4       	rcall	.+2138   	; 0x386c <fputc>
    3012:	82 e0       	ldi	r24, 0x02	; 2
    3014:	ee 24       	eor	r14, r14
    3016:	e3 94       	inc	r14
    3018:	e8 0e       	add	r14, r24
    301a:	f3 01       	movw	r30, r6
    301c:	e8 0f       	add	r30, r24
    301e:	f1 1d       	adc	r31, r1
    3020:	80 81       	ld	r24, Z
    3022:	b6 01       	movw	r22, r12
    3024:	90 e0       	ldi	r25, 0x00	; 0
    3026:	22 d4       	rcall	.+2116   	; 0x386c <fputc>
    3028:	11 50       	subi	r17, 0x01	; 1
    302a:	8e 2d       	mov	r24, r14
    302c:	99 f7       	brne	.-26     	; 0x3014 <vfprintf+0x37e>
    302e:	e8 cf       	rjmp	.-48     	; 0x3000 <vfprintf+0x36a>
    3030:	85 e4       	ldi	r24, 0x45	; 69
    3032:	90 e0       	ldi	r25, 0x00	; 0
    3034:	b6 01       	movw	r22, r12
    3036:	1a d4       	rcall	.+2100   	; 0x386c <fputc>
    3038:	57 fc       	sbrc	r5, 7
    303a:	05 c0       	rjmp	.+10     	; 0x3046 <vfprintf+0x3b0>
    303c:	41 14       	cp	r4, r1
    303e:	51 04       	cpc	r5, r1
    3040:	39 f4       	brne	.+14     	; 0x3050 <vfprintf+0x3ba>
    3042:	04 ff       	sbrs	r16, 4
    3044:	05 c0       	rjmp	.+10     	; 0x3050 <vfprintf+0x3ba>
    3046:	51 94       	neg	r5
    3048:	41 94       	neg	r4
    304a:	51 08       	sbc	r5, r1
    304c:	8d e2       	ldi	r24, 0x2D	; 45
    304e:	01 c0       	rjmp	.+2      	; 0x3052 <vfprintf+0x3bc>
    3050:	8b e2       	ldi	r24, 0x2B	; 43
    3052:	b6 01       	movw	r22, r12
    3054:	90 e0       	ldi	r25, 0x00	; 0
    3056:	0a d4       	rcall	.+2068   	; 0x386c <fputc>
    3058:	80 e3       	ldi	r24, 0x30	; 48
    305a:	9a e0       	ldi	r25, 0x0A	; 10
    305c:	49 16       	cp	r4, r25
    305e:	51 04       	cpc	r5, r1
    3060:	2c f0       	brlt	.+10     	; 0x306c <vfprintf+0x3d6>
    3062:	8f 5f       	subi	r24, 0xFF	; 255
    3064:	5a e0       	ldi	r21, 0x0A	; 10
    3066:	45 1a       	sub	r4, r21
    3068:	51 08       	sbc	r5, r1
    306a:	f7 cf       	rjmp	.-18     	; 0x305a <vfprintf+0x3c4>
    306c:	b6 01       	movw	r22, r12
    306e:	90 e0       	ldi	r25, 0x00	; 0
    3070:	fd d3       	rcall	.+2042   	; 0x386c <fputc>
    3072:	b6 01       	movw	r22, r12
    3074:	c2 01       	movw	r24, r4
    3076:	c0 96       	adiw	r24, 0x30	; 48
    3078:	f9 d3       	rcall	.+2034   	; 0x386c <fputc>
    307a:	4c c1       	rjmp	.+664    	; 0x3314 <vfprintf+0x67e>
    307c:	83 36       	cpi	r24, 0x63	; 99
    307e:	31 f0       	breq	.+12     	; 0x308c <vfprintf+0x3f6>
    3080:	83 37       	cpi	r24, 0x73	; 115
    3082:	79 f0       	breq	.+30     	; 0x30a2 <vfprintf+0x40c>
    3084:	83 35       	cpi	r24, 0x53	; 83
    3086:	09 f0       	breq	.+2      	; 0x308a <vfprintf+0x3f4>
    3088:	54 c0       	rjmp	.+168    	; 0x3132 <vfprintf+0x49c>
    308a:	20 c0       	rjmp	.+64     	; 0x30cc <vfprintf+0x436>
    308c:	52 01       	movw	r10, r4
    308e:	e2 e0       	ldi	r30, 0x02	; 2
    3090:	ae 0e       	add	r10, r30
    3092:	b1 1c       	adc	r11, r1
    3094:	f2 01       	movw	r30, r4
    3096:	80 81       	ld	r24, Z
    3098:	89 83       	std	Y+1, r24	; 0x01
    309a:	01 e0       	ldi	r16, 0x01	; 1
    309c:	10 e0       	ldi	r17, 0x00	; 0
    309e:	23 01       	movw	r4, r6
    30a0:	13 c0       	rjmp	.+38     	; 0x30c8 <vfprintf+0x432>
    30a2:	52 01       	movw	r10, r4
    30a4:	f2 e0       	ldi	r31, 0x02	; 2
    30a6:	af 0e       	add	r10, r31
    30a8:	b1 1c       	adc	r11, r1
    30aa:	f2 01       	movw	r30, r4
    30ac:	40 80       	ld	r4, Z
    30ae:	51 80       	ldd	r5, Z+1	; 0x01
    30b0:	26 ff       	sbrs	r18, 6
    30b2:	03 c0       	rjmp	.+6      	; 0x30ba <vfprintf+0x424>
    30b4:	61 2f       	mov	r22, r17
    30b6:	70 e0       	ldi	r23, 0x00	; 0
    30b8:	02 c0       	rjmp	.+4      	; 0x30be <vfprintf+0x428>
    30ba:	6f ef       	ldi	r22, 0xFF	; 255
    30bc:	7f ef       	ldi	r23, 0xFF	; 255
    30be:	c2 01       	movw	r24, r4
    30c0:	2a 8b       	std	Y+18, r18	; 0x12
    30c2:	c9 d3       	rcall	.+1938   	; 0x3856 <strnlen>
    30c4:	8c 01       	movw	r16, r24
    30c6:	2a 89       	ldd	r18, Y+18	; 0x12
    30c8:	2f 77       	andi	r18, 0x7F	; 127
    30ca:	14 c0       	rjmp	.+40     	; 0x30f4 <vfprintf+0x45e>
    30cc:	52 01       	movw	r10, r4
    30ce:	f2 e0       	ldi	r31, 0x02	; 2
    30d0:	af 0e       	add	r10, r31
    30d2:	b1 1c       	adc	r11, r1
    30d4:	f2 01       	movw	r30, r4
    30d6:	40 80       	ld	r4, Z
    30d8:	51 80       	ldd	r5, Z+1	; 0x01
    30da:	26 ff       	sbrs	r18, 6
    30dc:	03 c0       	rjmp	.+6      	; 0x30e4 <vfprintf+0x44e>
    30de:	61 2f       	mov	r22, r17
    30e0:	70 e0       	ldi	r23, 0x00	; 0
    30e2:	02 c0       	rjmp	.+4      	; 0x30e8 <vfprintf+0x452>
    30e4:	6f ef       	ldi	r22, 0xFF	; 255
    30e6:	7f ef       	ldi	r23, 0xFF	; 255
    30e8:	c2 01       	movw	r24, r4
    30ea:	2a 8b       	std	Y+18, r18	; 0x12
    30ec:	a2 d3       	rcall	.+1860   	; 0x3832 <strnlen_P>
    30ee:	8c 01       	movw	r16, r24
    30f0:	2a 89       	ldd	r18, Y+18	; 0x12
    30f2:	20 68       	ori	r18, 0x80	; 128
    30f4:	32 2e       	mov	r3, r18
    30f6:	23 fd       	sbrc	r18, 3
    30f8:	18 c0       	rjmp	.+48     	; 0x312a <vfprintf+0x494>
    30fa:	8f 2d       	mov	r24, r15
    30fc:	90 e0       	ldi	r25, 0x00	; 0
    30fe:	08 17       	cp	r16, r24
    3100:	19 07       	cpc	r17, r25
    3102:	98 f4       	brcc	.+38     	; 0x312a <vfprintf+0x494>
    3104:	b6 01       	movw	r22, r12
    3106:	80 e2       	ldi	r24, 0x20	; 32
    3108:	90 e0       	ldi	r25, 0x00	; 0
    310a:	b0 d3       	rcall	.+1888   	; 0x386c <fputc>
    310c:	fa 94       	dec	r15
    310e:	f5 cf       	rjmp	.-22     	; 0x30fa <vfprintf+0x464>
    3110:	f2 01       	movw	r30, r4
    3112:	37 fc       	sbrc	r3, 7
    3114:	85 91       	lpm	r24, Z+
    3116:	37 fe       	sbrs	r3, 7
    3118:	81 91       	ld	r24, Z+
    311a:	2f 01       	movw	r4, r30
    311c:	b6 01       	movw	r22, r12
    311e:	90 e0       	ldi	r25, 0x00	; 0
    3120:	a5 d3       	rcall	.+1866   	; 0x386c <fputc>
    3122:	f1 10       	cpse	r15, r1
    3124:	fa 94       	dec	r15
    3126:	01 50       	subi	r16, 0x01	; 1
    3128:	11 09       	sbc	r17, r1
    312a:	01 15       	cp	r16, r1
    312c:	11 05       	cpc	r17, r1
    312e:	81 f7       	brne	.-32     	; 0x3110 <vfprintf+0x47a>
    3130:	f1 c0       	rjmp	.+482    	; 0x3314 <vfprintf+0x67e>
    3132:	84 36       	cpi	r24, 0x64	; 100
    3134:	11 f0       	breq	.+4      	; 0x313a <vfprintf+0x4a4>
    3136:	89 36       	cpi	r24, 0x69	; 105
    3138:	51 f5       	brne	.+84     	; 0x318e <vfprintf+0x4f8>
    313a:	52 01       	movw	r10, r4
    313c:	27 ff       	sbrs	r18, 7
    313e:	09 c0       	rjmp	.+18     	; 0x3152 <vfprintf+0x4bc>
    3140:	f4 e0       	ldi	r31, 0x04	; 4
    3142:	af 0e       	add	r10, r31
    3144:	b1 1c       	adc	r11, r1
    3146:	f2 01       	movw	r30, r4
    3148:	60 81       	ld	r22, Z
    314a:	71 81       	ldd	r23, Z+1	; 0x01
    314c:	82 81       	ldd	r24, Z+2	; 0x02
    314e:	93 81       	ldd	r25, Z+3	; 0x03
    3150:	0a c0       	rjmp	.+20     	; 0x3166 <vfprintf+0x4d0>
    3152:	f2 e0       	ldi	r31, 0x02	; 2
    3154:	af 0e       	add	r10, r31
    3156:	b1 1c       	adc	r11, r1
    3158:	f2 01       	movw	r30, r4
    315a:	60 81       	ld	r22, Z
    315c:	71 81       	ldd	r23, Z+1	; 0x01
    315e:	07 2e       	mov	r0, r23
    3160:	00 0c       	add	r0, r0
    3162:	88 0b       	sbc	r24, r24
    3164:	99 0b       	sbc	r25, r25
    3166:	2f 76       	andi	r18, 0x6F	; 111
    3168:	32 2e       	mov	r3, r18
    316a:	97 ff       	sbrs	r25, 7
    316c:	09 c0       	rjmp	.+18     	; 0x3180 <vfprintf+0x4ea>
    316e:	90 95       	com	r25
    3170:	80 95       	com	r24
    3172:	70 95       	com	r23
    3174:	61 95       	neg	r22
    3176:	7f 4f       	sbci	r23, 0xFF	; 255
    3178:	8f 4f       	sbci	r24, 0xFF	; 255
    317a:	9f 4f       	sbci	r25, 0xFF	; 255
    317c:	20 68       	ori	r18, 0x80	; 128
    317e:	32 2e       	mov	r3, r18
    3180:	2a e0       	ldi	r18, 0x0A	; 10
    3182:	30 e0       	ldi	r19, 0x00	; 0
    3184:	a3 01       	movw	r20, r6
    3186:	d9 d3       	rcall	.+1970   	; 0x393a <__ultoa_invert>
    3188:	e8 2e       	mov	r14, r24
    318a:	e6 18       	sub	r14, r6
    318c:	3e c0       	rjmp	.+124    	; 0x320a <vfprintf+0x574>
    318e:	02 2f       	mov	r16, r18
    3190:	85 37       	cpi	r24, 0x75	; 117
    3192:	21 f4       	brne	.+8      	; 0x319c <vfprintf+0x506>
    3194:	0f 7e       	andi	r16, 0xEF	; 239
    3196:	2a e0       	ldi	r18, 0x0A	; 10
    3198:	30 e0       	ldi	r19, 0x00	; 0
    319a:	1d c0       	rjmp	.+58     	; 0x31d6 <vfprintf+0x540>
    319c:	09 7f       	andi	r16, 0xF9	; 249
    319e:	8f 36       	cpi	r24, 0x6F	; 111
    31a0:	91 f0       	breq	.+36     	; 0x31c6 <vfprintf+0x530>
    31a2:	18 f4       	brcc	.+6      	; 0x31aa <vfprintf+0x514>
    31a4:	88 35       	cpi	r24, 0x58	; 88
    31a6:	59 f0       	breq	.+22     	; 0x31be <vfprintf+0x528>
    31a8:	be c0       	rjmp	.+380    	; 0x3326 <vfprintf+0x690>
    31aa:	80 37       	cpi	r24, 0x70	; 112
    31ac:	19 f0       	breq	.+6      	; 0x31b4 <vfprintf+0x51e>
    31ae:	88 37       	cpi	r24, 0x78	; 120
    31b0:	11 f0       	breq	.+4      	; 0x31b6 <vfprintf+0x520>
    31b2:	b9 c0       	rjmp	.+370    	; 0x3326 <vfprintf+0x690>
    31b4:	00 61       	ori	r16, 0x10	; 16
    31b6:	04 ff       	sbrs	r16, 4
    31b8:	09 c0       	rjmp	.+18     	; 0x31cc <vfprintf+0x536>
    31ba:	04 60       	ori	r16, 0x04	; 4
    31bc:	07 c0       	rjmp	.+14     	; 0x31cc <vfprintf+0x536>
    31be:	24 ff       	sbrs	r18, 4
    31c0:	08 c0       	rjmp	.+16     	; 0x31d2 <vfprintf+0x53c>
    31c2:	06 60       	ori	r16, 0x06	; 6
    31c4:	06 c0       	rjmp	.+12     	; 0x31d2 <vfprintf+0x53c>
    31c6:	28 e0       	ldi	r18, 0x08	; 8
    31c8:	30 e0       	ldi	r19, 0x00	; 0
    31ca:	05 c0       	rjmp	.+10     	; 0x31d6 <vfprintf+0x540>
    31cc:	20 e1       	ldi	r18, 0x10	; 16
    31ce:	30 e0       	ldi	r19, 0x00	; 0
    31d0:	02 c0       	rjmp	.+4      	; 0x31d6 <vfprintf+0x540>
    31d2:	20 e1       	ldi	r18, 0x10	; 16
    31d4:	32 e0       	ldi	r19, 0x02	; 2
    31d6:	52 01       	movw	r10, r4
    31d8:	07 ff       	sbrs	r16, 7
    31da:	09 c0       	rjmp	.+18     	; 0x31ee <vfprintf+0x558>
    31dc:	f4 e0       	ldi	r31, 0x04	; 4
    31de:	af 0e       	add	r10, r31
    31e0:	b1 1c       	adc	r11, r1
    31e2:	f2 01       	movw	r30, r4
    31e4:	60 81       	ld	r22, Z
    31e6:	71 81       	ldd	r23, Z+1	; 0x01
    31e8:	82 81       	ldd	r24, Z+2	; 0x02
    31ea:	93 81       	ldd	r25, Z+3	; 0x03
    31ec:	08 c0       	rjmp	.+16     	; 0x31fe <vfprintf+0x568>
    31ee:	f2 e0       	ldi	r31, 0x02	; 2
    31f0:	af 0e       	add	r10, r31
    31f2:	b1 1c       	adc	r11, r1
    31f4:	f2 01       	movw	r30, r4
    31f6:	60 81       	ld	r22, Z
    31f8:	71 81       	ldd	r23, Z+1	; 0x01
    31fa:	80 e0       	ldi	r24, 0x00	; 0
    31fc:	90 e0       	ldi	r25, 0x00	; 0
    31fe:	a3 01       	movw	r20, r6
    3200:	9c d3       	rcall	.+1848   	; 0x393a <__ultoa_invert>
    3202:	e8 2e       	mov	r14, r24
    3204:	e6 18       	sub	r14, r6
    3206:	0f 77       	andi	r16, 0x7F	; 127
    3208:	30 2e       	mov	r3, r16
    320a:	36 fe       	sbrs	r3, 6
    320c:	0b c0       	rjmp	.+22     	; 0x3224 <vfprintf+0x58e>
    320e:	33 2d       	mov	r19, r3
    3210:	3e 7f       	andi	r19, 0xFE	; 254
    3212:	e1 16       	cp	r14, r17
    3214:	50 f4       	brcc	.+20     	; 0x322a <vfprintf+0x594>
    3216:	34 fe       	sbrs	r3, 4
    3218:	0a c0       	rjmp	.+20     	; 0x322e <vfprintf+0x598>
    321a:	32 fc       	sbrc	r3, 2
    321c:	08 c0       	rjmp	.+16     	; 0x322e <vfprintf+0x598>
    321e:	33 2d       	mov	r19, r3
    3220:	3e 7e       	andi	r19, 0xEE	; 238
    3222:	05 c0       	rjmp	.+10     	; 0x322e <vfprintf+0x598>
    3224:	0e 2d       	mov	r16, r14
    3226:	33 2d       	mov	r19, r3
    3228:	03 c0       	rjmp	.+6      	; 0x3230 <vfprintf+0x59a>
    322a:	0e 2d       	mov	r16, r14
    322c:	01 c0       	rjmp	.+2      	; 0x3230 <vfprintf+0x59a>
    322e:	01 2f       	mov	r16, r17
    3230:	34 ff       	sbrs	r19, 4
    3232:	0c c0       	rjmp	.+24     	; 0x324c <vfprintf+0x5b6>
    3234:	fe 01       	movw	r30, r28
    3236:	ee 0d       	add	r30, r14
    3238:	f1 1d       	adc	r31, r1
    323a:	80 81       	ld	r24, Z
    323c:	80 33       	cpi	r24, 0x30	; 48
    323e:	11 f4       	brne	.+4      	; 0x3244 <vfprintf+0x5ae>
    3240:	39 7e       	andi	r19, 0xE9	; 233
    3242:	08 c0       	rjmp	.+16     	; 0x3254 <vfprintf+0x5be>
    3244:	32 ff       	sbrs	r19, 2
    3246:	05 c0       	rjmp	.+10     	; 0x3252 <vfprintf+0x5bc>
    3248:	0e 5f       	subi	r16, 0xFE	; 254
    324a:	04 c0       	rjmp	.+8      	; 0x3254 <vfprintf+0x5be>
    324c:	83 2f       	mov	r24, r19
    324e:	86 78       	andi	r24, 0x86	; 134
    3250:	09 f0       	breq	.+2      	; 0x3254 <vfprintf+0x5be>
    3252:	0f 5f       	subi	r16, 0xFF	; 255
    3254:	33 fd       	sbrc	r19, 3
    3256:	12 c0       	rjmp	.+36     	; 0x327c <vfprintf+0x5e6>
    3258:	30 ff       	sbrs	r19, 0
    325a:	06 c0       	rjmp	.+12     	; 0x3268 <vfprintf+0x5d2>
    325c:	1e 2d       	mov	r17, r14
    325e:	0f 15       	cp	r16, r15
    3260:	18 f4       	brcc	.+6      	; 0x3268 <vfprintf+0x5d2>
    3262:	1f 0d       	add	r17, r15
    3264:	10 1b       	sub	r17, r16
    3266:	0f 2d       	mov	r16, r15
    3268:	0f 15       	cp	r16, r15
    326a:	60 f4       	brcc	.+24     	; 0x3284 <vfprintf+0x5ee>
    326c:	b6 01       	movw	r22, r12
    326e:	80 e2       	ldi	r24, 0x20	; 32
    3270:	90 e0       	ldi	r25, 0x00	; 0
    3272:	3b 8b       	std	Y+19, r19	; 0x13
    3274:	fb d2       	rcall	.+1526   	; 0x386c <fputc>
    3276:	0f 5f       	subi	r16, 0xFF	; 255
    3278:	3b 89       	ldd	r19, Y+19	; 0x13
    327a:	f6 cf       	rjmp	.-20     	; 0x3268 <vfprintf+0x5d2>
    327c:	0f 15       	cp	r16, r15
    327e:	10 f4       	brcc	.+4      	; 0x3284 <vfprintf+0x5ee>
    3280:	f0 1a       	sub	r15, r16
    3282:	01 c0       	rjmp	.+2      	; 0x3286 <vfprintf+0x5f0>
    3284:	f1 2c       	mov	r15, r1
    3286:	34 ff       	sbrs	r19, 4
    3288:	11 c0       	rjmp	.+34     	; 0x32ac <vfprintf+0x616>
    328a:	b6 01       	movw	r22, r12
    328c:	80 e3       	ldi	r24, 0x30	; 48
    328e:	90 e0       	ldi	r25, 0x00	; 0
    3290:	3b 8b       	std	Y+19, r19	; 0x13
    3292:	ec d2       	rcall	.+1496   	; 0x386c <fputc>
    3294:	3b 89       	ldd	r19, Y+19	; 0x13
    3296:	32 ff       	sbrs	r19, 2
    3298:	16 c0       	rjmp	.+44     	; 0x32c6 <vfprintf+0x630>
    329a:	31 fd       	sbrc	r19, 1
    329c:	03 c0       	rjmp	.+6      	; 0x32a4 <vfprintf+0x60e>
    329e:	88 e7       	ldi	r24, 0x78	; 120
    32a0:	90 e0       	ldi	r25, 0x00	; 0
    32a2:	02 c0       	rjmp	.+4      	; 0x32a8 <vfprintf+0x612>
    32a4:	88 e5       	ldi	r24, 0x58	; 88
    32a6:	90 e0       	ldi	r25, 0x00	; 0
    32a8:	b6 01       	movw	r22, r12
    32aa:	0c c0       	rjmp	.+24     	; 0x32c4 <vfprintf+0x62e>
    32ac:	83 2f       	mov	r24, r19
    32ae:	86 78       	andi	r24, 0x86	; 134
    32b0:	51 f0       	breq	.+20     	; 0x32c6 <vfprintf+0x630>
    32b2:	31 ff       	sbrs	r19, 1
    32b4:	02 c0       	rjmp	.+4      	; 0x32ba <vfprintf+0x624>
    32b6:	8b e2       	ldi	r24, 0x2B	; 43
    32b8:	01 c0       	rjmp	.+2      	; 0x32bc <vfprintf+0x626>
    32ba:	80 e2       	ldi	r24, 0x20	; 32
    32bc:	37 fd       	sbrc	r19, 7
    32be:	8d e2       	ldi	r24, 0x2D	; 45
    32c0:	b6 01       	movw	r22, r12
    32c2:	90 e0       	ldi	r25, 0x00	; 0
    32c4:	d3 d2       	rcall	.+1446   	; 0x386c <fputc>
    32c6:	e1 16       	cp	r14, r17
    32c8:	30 f4       	brcc	.+12     	; 0x32d6 <vfprintf+0x640>
    32ca:	b6 01       	movw	r22, r12
    32cc:	80 e3       	ldi	r24, 0x30	; 48
    32ce:	90 e0       	ldi	r25, 0x00	; 0
    32d0:	cd d2       	rcall	.+1434   	; 0x386c <fputc>
    32d2:	11 50       	subi	r17, 0x01	; 1
    32d4:	f8 cf       	rjmp	.-16     	; 0x32c6 <vfprintf+0x630>
    32d6:	ea 94       	dec	r14
    32d8:	f3 01       	movw	r30, r6
    32da:	ee 0d       	add	r30, r14
    32dc:	f1 1d       	adc	r31, r1
    32de:	80 81       	ld	r24, Z
    32e0:	b6 01       	movw	r22, r12
    32e2:	90 e0       	ldi	r25, 0x00	; 0
    32e4:	c3 d2       	rcall	.+1414   	; 0x386c <fputc>
    32e6:	e1 10       	cpse	r14, r1
    32e8:	f6 cf       	rjmp	.-20     	; 0x32d6 <vfprintf+0x640>
    32ea:	14 c0       	rjmp	.+40     	; 0x3314 <vfprintf+0x67e>
    32ec:	f4 e0       	ldi	r31, 0x04	; 4
    32ee:	ff 15       	cp	r31, r15
    32f0:	48 f5       	brcc	.+82     	; 0x3344 <vfprintf+0x6ae>
    32f2:	84 e0       	ldi	r24, 0x04	; 4
    32f4:	f8 1a       	sub	r15, r24
    32f6:	33 fe       	sbrs	r3, 3
    32f8:	1d c0       	rjmp	.+58     	; 0x3334 <vfprintf+0x69e>
    32fa:	21 10       	cpse	r2, r1
    32fc:	24 c0       	rjmp	.+72     	; 0x3346 <vfprintf+0x6b0>
    32fe:	03 ff       	sbrs	r16, 3
    3300:	27 c0       	rjmp	.+78     	; 0x3350 <vfprintf+0x6ba>
    3302:	0c e7       	ldi	r16, 0x7C	; 124
    3304:	11 e0       	ldi	r17, 0x01	; 1
    3306:	f3 2d       	mov	r31, r3
    3308:	f0 71       	andi	r31, 0x10	; 16
    330a:	3f 2e       	mov	r3, r31
    330c:	f8 01       	movw	r30, r16
    330e:	84 91       	lpm	r24, Z
    3310:	81 11       	cpse	r24, r1
    3312:	21 c0       	rjmp	.+66     	; 0x3356 <vfprintf+0x6c0>
    3314:	ff 20       	and	r15, r15
    3316:	09 f4       	brne	.+2      	; 0x331a <vfprintf+0x684>
    3318:	fd cc       	rjmp	.-1542   	; 0x2d14 <vfprintf+0x7e>
    331a:	b6 01       	movw	r22, r12
    331c:	80 e2       	ldi	r24, 0x20	; 32
    331e:	90 e0       	ldi	r25, 0x00	; 0
    3320:	a5 d2       	rcall	.+1354   	; 0x386c <fputc>
    3322:	fa 94       	dec	r15
    3324:	f7 cf       	rjmp	.-18     	; 0x3314 <vfprintf+0x67e>
    3326:	f6 01       	movw	r30, r12
    3328:	86 81       	ldd	r24, Z+6	; 0x06
    332a:	97 81       	ldd	r25, Z+7	; 0x07
    332c:	23 c0       	rjmp	.+70     	; 0x3374 <vfprintf+0x6de>
    332e:	8f ef       	ldi	r24, 0xFF	; 255
    3330:	9f ef       	ldi	r25, 0xFF	; 255
    3332:	20 c0       	rjmp	.+64     	; 0x3374 <vfprintf+0x6de>
    3334:	b6 01       	movw	r22, r12
    3336:	80 e2       	ldi	r24, 0x20	; 32
    3338:	90 e0       	ldi	r25, 0x00	; 0
    333a:	98 d2       	rcall	.+1328   	; 0x386c <fputc>
    333c:	fa 94       	dec	r15
    333e:	f1 10       	cpse	r15, r1
    3340:	f9 cf       	rjmp	.-14     	; 0x3334 <vfprintf+0x69e>
    3342:	db cf       	rjmp	.-74     	; 0x32fa <vfprintf+0x664>
    3344:	f1 2c       	mov	r15, r1
    3346:	b6 01       	movw	r22, r12
    3348:	82 2d       	mov	r24, r2
    334a:	90 e0       	ldi	r25, 0x00	; 0
    334c:	8f d2       	rcall	.+1310   	; 0x386c <fputc>
    334e:	d7 cf       	rjmp	.-82     	; 0x32fe <vfprintf+0x668>
    3350:	00 e8       	ldi	r16, 0x80	; 128
    3352:	11 e0       	ldi	r17, 0x01	; 1
    3354:	d8 cf       	rjmp	.-80     	; 0x3306 <vfprintf+0x670>
    3356:	31 10       	cpse	r3, r1
    3358:	80 52       	subi	r24, 0x20	; 32
    335a:	b6 01       	movw	r22, r12
    335c:	90 e0       	ldi	r25, 0x00	; 0
    335e:	86 d2       	rcall	.+1292   	; 0x386c <fputc>
    3360:	0f 5f       	subi	r16, 0xFF	; 255
    3362:	1f 4f       	sbci	r17, 0xFF	; 255
    3364:	d3 cf       	rjmp	.-90     	; 0x330c <vfprintf+0x676>
    3366:	23 e0       	ldi	r18, 0x03	; 3
    3368:	2f 15       	cp	r18, r15
    336a:	10 f4       	brcc	.+4      	; 0x3370 <vfprintf+0x6da>
    336c:	83 e0       	ldi	r24, 0x03	; 3
    336e:	c2 cf       	rjmp	.-124    	; 0x32f4 <vfprintf+0x65e>
    3370:	f1 2c       	mov	r15, r1
    3372:	c5 cf       	rjmp	.-118    	; 0x32fe <vfprintf+0x668>
    3374:	63 96       	adiw	r28, 0x13	; 19
    3376:	0f b6       	in	r0, 0x3f	; 63
    3378:	f8 94       	cli
    337a:	de bf       	out	0x3e, r29	; 62
    337c:	0f be       	out	0x3f, r0	; 63
    337e:	cd bf       	out	0x3d, r28	; 61
    3380:	df 91       	pop	r29
    3382:	cf 91       	pop	r28
    3384:	1f 91       	pop	r17
    3386:	0f 91       	pop	r16
    3388:	ff 90       	pop	r15
    338a:	ef 90       	pop	r14
    338c:	df 90       	pop	r13
    338e:	cf 90       	pop	r12
    3390:	bf 90       	pop	r11
    3392:	af 90       	pop	r10
    3394:	9f 90       	pop	r9
    3396:	8f 90       	pop	r8
    3398:	7f 90       	pop	r7
    339a:	6f 90       	pop	r6
    339c:	5f 90       	pop	r5
    339e:	4f 90       	pop	r4
    33a0:	3f 90       	pop	r3
    33a2:	2f 90       	pop	r2
    33a4:	08 95       	ret

000033a6 <__divmodhi4>:
    33a6:	97 fb       	bst	r25, 7
    33a8:	07 2e       	mov	r0, r23
    33aa:	16 f4       	brtc	.+4      	; 0x33b0 <__divmodhi4+0xa>
    33ac:	00 94       	com	r0
    33ae:	06 d0       	rcall	.+12     	; 0x33bc <__divmodhi4_neg1>
    33b0:	77 fd       	sbrc	r23, 7
    33b2:	08 d0       	rcall	.+16     	; 0x33c4 <__divmodhi4_neg2>
    33b4:	0b d0       	rcall	.+22     	; 0x33cc <__udivmodhi4>
    33b6:	07 fc       	sbrc	r0, 7
    33b8:	05 d0       	rcall	.+10     	; 0x33c4 <__divmodhi4_neg2>
    33ba:	3e f4       	brtc	.+14     	; 0x33ca <__divmodhi4_exit>

000033bc <__divmodhi4_neg1>:
    33bc:	90 95       	com	r25
    33be:	81 95       	neg	r24
    33c0:	9f 4f       	sbci	r25, 0xFF	; 255
    33c2:	08 95       	ret

000033c4 <__divmodhi4_neg2>:
    33c4:	70 95       	com	r23
    33c6:	61 95       	neg	r22
    33c8:	7f 4f       	sbci	r23, 0xFF	; 255

000033ca <__divmodhi4_exit>:
    33ca:	08 95       	ret

000033cc <__udivmodhi4>:
    33cc:	aa 1b       	sub	r26, r26
    33ce:	bb 1b       	sub	r27, r27
    33d0:	51 e1       	ldi	r21, 0x11	; 17
    33d2:	07 c0       	rjmp	.+14     	; 0x33e2 <__udivmodhi4_ep>

000033d4 <__udivmodhi4_loop>:
    33d4:	aa 1f       	adc	r26, r26
    33d6:	bb 1f       	adc	r27, r27
    33d8:	a6 17       	cp	r26, r22
    33da:	b7 07       	cpc	r27, r23
    33dc:	10 f0       	brcs	.+4      	; 0x33e2 <__udivmodhi4_ep>
    33de:	a6 1b       	sub	r26, r22
    33e0:	b7 0b       	sbc	r27, r23

000033e2 <__udivmodhi4_ep>:
    33e2:	88 1f       	adc	r24, r24
    33e4:	99 1f       	adc	r25, r25
    33e6:	5a 95       	dec	r21
    33e8:	a9 f7       	brne	.-22     	; 0x33d4 <__udivmodhi4_loop>
    33ea:	80 95       	com	r24
    33ec:	90 95       	com	r25
    33ee:	bc 01       	movw	r22, r24
    33f0:	cd 01       	movw	r24, r26
    33f2:	08 95       	ret

000033f4 <calloc>:
    33f4:	0f 93       	push	r16
    33f6:	1f 93       	push	r17
    33f8:	cf 93       	push	r28
    33fa:	df 93       	push	r29
    33fc:	86 9f       	mul	r24, r22
    33fe:	80 01       	movw	r16, r0
    3400:	87 9f       	mul	r24, r23
    3402:	10 0d       	add	r17, r0
    3404:	96 9f       	mul	r25, r22
    3406:	10 0d       	add	r17, r0
    3408:	11 24       	eor	r1, r1
    340a:	c8 01       	movw	r24, r16
    340c:	0d d0       	rcall	.+26     	; 0x3428 <malloc>
    340e:	ec 01       	movw	r28, r24
    3410:	00 97       	sbiw	r24, 0x00	; 0
    3412:	21 f0       	breq	.+8      	; 0x341c <calloc+0x28>
    3414:	a8 01       	movw	r20, r16
    3416:	60 e0       	ldi	r22, 0x00	; 0
    3418:	70 e0       	ldi	r23, 0x00	; 0
    341a:	16 d2       	rcall	.+1068   	; 0x3848 <memset>
    341c:	ce 01       	movw	r24, r28
    341e:	df 91       	pop	r29
    3420:	cf 91       	pop	r28
    3422:	1f 91       	pop	r17
    3424:	0f 91       	pop	r16
    3426:	08 95       	ret

00003428 <malloc>:
    3428:	cf 93       	push	r28
    342a:	df 93       	push	r29
    342c:	82 30       	cpi	r24, 0x02	; 2
    342e:	91 05       	cpc	r25, r1
    3430:	10 f4       	brcc	.+4      	; 0x3436 <malloc+0xe>
    3432:	82 e0       	ldi	r24, 0x02	; 2
    3434:	90 e0       	ldi	r25, 0x00	; 0
    3436:	e0 91 aa 03 	lds	r30, 0x03AA
    343a:	f0 91 ab 03 	lds	r31, 0x03AB
    343e:	20 e0       	ldi	r18, 0x00	; 0
    3440:	30 e0       	ldi	r19, 0x00	; 0
    3442:	c0 e0       	ldi	r28, 0x00	; 0
    3444:	d0 e0       	ldi	r29, 0x00	; 0
    3446:	30 97       	sbiw	r30, 0x00	; 0
    3448:	11 f1       	breq	.+68     	; 0x348e <malloc+0x66>
    344a:	40 81       	ld	r20, Z
    344c:	51 81       	ldd	r21, Z+1	; 0x01
    344e:	48 17       	cp	r20, r24
    3450:	59 07       	cpc	r21, r25
    3452:	c0 f0       	brcs	.+48     	; 0x3484 <malloc+0x5c>
    3454:	48 17       	cp	r20, r24
    3456:	59 07       	cpc	r21, r25
    3458:	61 f4       	brne	.+24     	; 0x3472 <malloc+0x4a>
    345a:	82 81       	ldd	r24, Z+2	; 0x02
    345c:	93 81       	ldd	r25, Z+3	; 0x03
    345e:	20 97       	sbiw	r28, 0x00	; 0
    3460:	19 f0       	breq	.+6      	; 0x3468 <malloc+0x40>
    3462:	9b 83       	std	Y+3, r25	; 0x03
    3464:	8a 83       	std	Y+2, r24	; 0x02
    3466:	2b c0       	rjmp	.+86     	; 0x34be <malloc+0x96>
    3468:	90 93 ab 03 	sts	0x03AB, r25
    346c:	80 93 aa 03 	sts	0x03AA, r24
    3470:	26 c0       	rjmp	.+76     	; 0x34be <malloc+0x96>
    3472:	21 15       	cp	r18, r1
    3474:	31 05       	cpc	r19, r1
    3476:	19 f0       	breq	.+6      	; 0x347e <malloc+0x56>
    3478:	42 17       	cp	r20, r18
    347a:	53 07       	cpc	r21, r19
    347c:	18 f4       	brcc	.+6      	; 0x3484 <malloc+0x5c>
    347e:	9a 01       	movw	r18, r20
    3480:	be 01       	movw	r22, r28
    3482:	df 01       	movw	r26, r30
    3484:	ef 01       	movw	r28, r30
    3486:	02 80       	ldd	r0, Z+2	; 0x02
    3488:	f3 81       	ldd	r31, Z+3	; 0x03
    348a:	e0 2d       	mov	r30, r0
    348c:	dc cf       	rjmp	.-72     	; 0x3446 <malloc+0x1e>
    348e:	21 15       	cp	r18, r1
    3490:	31 05       	cpc	r19, r1
    3492:	09 f1       	breq	.+66     	; 0x34d6 <malloc+0xae>
    3494:	28 1b       	sub	r18, r24
    3496:	39 0b       	sbc	r19, r25
    3498:	24 30       	cpi	r18, 0x04	; 4
    349a:	31 05       	cpc	r19, r1
    349c:	90 f4       	brcc	.+36     	; 0x34c2 <malloc+0x9a>
    349e:	12 96       	adiw	r26, 0x02	; 2
    34a0:	8d 91       	ld	r24, X+
    34a2:	9c 91       	ld	r25, X
    34a4:	13 97       	sbiw	r26, 0x03	; 3
    34a6:	61 15       	cp	r22, r1
    34a8:	71 05       	cpc	r23, r1
    34aa:	21 f0       	breq	.+8      	; 0x34b4 <malloc+0x8c>
    34ac:	fb 01       	movw	r30, r22
    34ae:	93 83       	std	Z+3, r25	; 0x03
    34b0:	82 83       	std	Z+2, r24	; 0x02
    34b2:	04 c0       	rjmp	.+8      	; 0x34bc <malloc+0x94>
    34b4:	90 93 ab 03 	sts	0x03AB, r25
    34b8:	80 93 aa 03 	sts	0x03AA, r24
    34bc:	fd 01       	movw	r30, r26
    34be:	32 96       	adiw	r30, 0x02	; 2
    34c0:	44 c0       	rjmp	.+136    	; 0x354a <malloc+0x122>
    34c2:	fd 01       	movw	r30, r26
    34c4:	e2 0f       	add	r30, r18
    34c6:	f3 1f       	adc	r31, r19
    34c8:	81 93       	st	Z+, r24
    34ca:	91 93       	st	Z+, r25
    34cc:	22 50       	subi	r18, 0x02	; 2
    34ce:	31 09       	sbc	r19, r1
    34d0:	2d 93       	st	X+, r18
    34d2:	3c 93       	st	X, r19
    34d4:	3a c0       	rjmp	.+116    	; 0x354a <malloc+0x122>
    34d6:	20 91 a8 03 	lds	r18, 0x03A8
    34da:	30 91 a9 03 	lds	r19, 0x03A9
    34de:	23 2b       	or	r18, r19
    34e0:	41 f4       	brne	.+16     	; 0x34f2 <malloc+0xca>
    34e2:	20 91 02 01 	lds	r18, 0x0102
    34e6:	30 91 03 01 	lds	r19, 0x0103
    34ea:	30 93 a9 03 	sts	0x03A9, r19
    34ee:	20 93 a8 03 	sts	0x03A8, r18
    34f2:	20 91 00 01 	lds	r18, 0x0100
    34f6:	30 91 01 01 	lds	r19, 0x0101
    34fa:	21 15       	cp	r18, r1
    34fc:	31 05       	cpc	r19, r1
    34fe:	41 f4       	brne	.+16     	; 0x3510 <malloc+0xe8>
    3500:	2d b7       	in	r18, 0x3d	; 61
    3502:	3e b7       	in	r19, 0x3e	; 62
    3504:	40 91 04 01 	lds	r20, 0x0104
    3508:	50 91 05 01 	lds	r21, 0x0105
    350c:	24 1b       	sub	r18, r20
    350e:	35 0b       	sbc	r19, r21
    3510:	e0 91 a8 03 	lds	r30, 0x03A8
    3514:	f0 91 a9 03 	lds	r31, 0x03A9
    3518:	e2 17       	cp	r30, r18
    351a:	f3 07       	cpc	r31, r19
    351c:	a0 f4       	brcc	.+40     	; 0x3546 <malloc+0x11e>
    351e:	2e 1b       	sub	r18, r30
    3520:	3f 0b       	sbc	r19, r31
    3522:	28 17       	cp	r18, r24
    3524:	39 07       	cpc	r19, r25
    3526:	78 f0       	brcs	.+30     	; 0x3546 <malloc+0x11e>
    3528:	ac 01       	movw	r20, r24
    352a:	4e 5f       	subi	r20, 0xFE	; 254
    352c:	5f 4f       	sbci	r21, 0xFF	; 255
    352e:	24 17       	cp	r18, r20
    3530:	35 07       	cpc	r19, r21
    3532:	48 f0       	brcs	.+18     	; 0x3546 <malloc+0x11e>
    3534:	4e 0f       	add	r20, r30
    3536:	5f 1f       	adc	r21, r31
    3538:	50 93 a9 03 	sts	0x03A9, r21
    353c:	40 93 a8 03 	sts	0x03A8, r20
    3540:	81 93       	st	Z+, r24
    3542:	91 93       	st	Z+, r25
    3544:	02 c0       	rjmp	.+4      	; 0x354a <malloc+0x122>
    3546:	e0 e0       	ldi	r30, 0x00	; 0
    3548:	f0 e0       	ldi	r31, 0x00	; 0
    354a:	cf 01       	movw	r24, r30
    354c:	df 91       	pop	r29
    354e:	cf 91       	pop	r28
    3550:	08 95       	ret

00003552 <free>:
    3552:	0f 93       	push	r16
    3554:	1f 93       	push	r17
    3556:	cf 93       	push	r28
    3558:	df 93       	push	r29
    355a:	00 97       	sbiw	r24, 0x00	; 0
    355c:	09 f4       	brne	.+2      	; 0x3560 <free+0xe>
    355e:	8c c0       	rjmp	.+280    	; 0x3678 <free+0x126>
    3560:	fc 01       	movw	r30, r24
    3562:	32 97       	sbiw	r30, 0x02	; 2
    3564:	13 82       	std	Z+3, r1	; 0x03
    3566:	12 82       	std	Z+2, r1	; 0x02
    3568:	00 91 aa 03 	lds	r16, 0x03AA
    356c:	10 91 ab 03 	lds	r17, 0x03AB
    3570:	01 15       	cp	r16, r1
    3572:	11 05       	cpc	r17, r1
    3574:	81 f4       	brne	.+32     	; 0x3596 <free+0x44>
    3576:	20 81       	ld	r18, Z
    3578:	31 81       	ldd	r19, Z+1	; 0x01
    357a:	82 0f       	add	r24, r18
    357c:	93 1f       	adc	r25, r19
    357e:	20 91 a8 03 	lds	r18, 0x03A8
    3582:	30 91 a9 03 	lds	r19, 0x03A9
    3586:	28 17       	cp	r18, r24
    3588:	39 07       	cpc	r19, r25
    358a:	79 f5       	brne	.+94     	; 0x35ea <free+0x98>
    358c:	f0 93 a9 03 	sts	0x03A9, r31
    3590:	e0 93 a8 03 	sts	0x03A8, r30
    3594:	71 c0       	rjmp	.+226    	; 0x3678 <free+0x126>
    3596:	d8 01       	movw	r26, r16
    3598:	40 e0       	ldi	r20, 0x00	; 0
    359a:	50 e0       	ldi	r21, 0x00	; 0
    359c:	ae 17       	cp	r26, r30
    359e:	bf 07       	cpc	r27, r31
    35a0:	50 f4       	brcc	.+20     	; 0x35b6 <free+0x64>
    35a2:	12 96       	adiw	r26, 0x02	; 2
    35a4:	2d 91       	ld	r18, X+
    35a6:	3c 91       	ld	r19, X
    35a8:	13 97       	sbiw	r26, 0x03	; 3
    35aa:	ad 01       	movw	r20, r26
    35ac:	21 15       	cp	r18, r1
    35ae:	31 05       	cpc	r19, r1
    35b0:	09 f1       	breq	.+66     	; 0x35f4 <free+0xa2>
    35b2:	d9 01       	movw	r26, r18
    35b4:	f3 cf       	rjmp	.-26     	; 0x359c <free+0x4a>
    35b6:	9d 01       	movw	r18, r26
    35b8:	da 01       	movw	r26, r20
    35ba:	33 83       	std	Z+3, r19	; 0x03
    35bc:	22 83       	std	Z+2, r18	; 0x02
    35be:	60 81       	ld	r22, Z
    35c0:	71 81       	ldd	r23, Z+1	; 0x01
    35c2:	86 0f       	add	r24, r22
    35c4:	97 1f       	adc	r25, r23
    35c6:	82 17       	cp	r24, r18
    35c8:	93 07       	cpc	r25, r19
    35ca:	69 f4       	brne	.+26     	; 0x35e6 <free+0x94>
    35cc:	ec 01       	movw	r28, r24
    35ce:	28 81       	ld	r18, Y
    35d0:	39 81       	ldd	r19, Y+1	; 0x01
    35d2:	26 0f       	add	r18, r22
    35d4:	37 1f       	adc	r19, r23
    35d6:	2e 5f       	subi	r18, 0xFE	; 254
    35d8:	3f 4f       	sbci	r19, 0xFF	; 255
    35da:	31 83       	std	Z+1, r19	; 0x01
    35dc:	20 83       	st	Z, r18
    35de:	8a 81       	ldd	r24, Y+2	; 0x02
    35e0:	9b 81       	ldd	r25, Y+3	; 0x03
    35e2:	93 83       	std	Z+3, r25	; 0x03
    35e4:	82 83       	std	Z+2, r24	; 0x02
    35e6:	45 2b       	or	r20, r21
    35e8:	29 f4       	brne	.+10     	; 0x35f4 <free+0xa2>
    35ea:	f0 93 ab 03 	sts	0x03AB, r31
    35ee:	e0 93 aa 03 	sts	0x03AA, r30
    35f2:	42 c0       	rjmp	.+132    	; 0x3678 <free+0x126>
    35f4:	13 96       	adiw	r26, 0x03	; 3
    35f6:	fc 93       	st	X, r31
    35f8:	ee 93       	st	-X, r30
    35fa:	12 97       	sbiw	r26, 0x02	; 2
    35fc:	ed 01       	movw	r28, r26
    35fe:	49 91       	ld	r20, Y+
    3600:	59 91       	ld	r21, Y+
    3602:	9e 01       	movw	r18, r28
    3604:	24 0f       	add	r18, r20
    3606:	35 1f       	adc	r19, r21
    3608:	e2 17       	cp	r30, r18
    360a:	f3 07       	cpc	r31, r19
    360c:	71 f4       	brne	.+28     	; 0x362a <free+0xd8>
    360e:	80 81       	ld	r24, Z
    3610:	91 81       	ldd	r25, Z+1	; 0x01
    3612:	84 0f       	add	r24, r20
    3614:	95 1f       	adc	r25, r21
    3616:	02 96       	adiw	r24, 0x02	; 2
    3618:	11 96       	adiw	r26, 0x01	; 1
    361a:	9c 93       	st	X, r25
    361c:	8e 93       	st	-X, r24
    361e:	82 81       	ldd	r24, Z+2	; 0x02
    3620:	93 81       	ldd	r25, Z+3	; 0x03
    3622:	13 96       	adiw	r26, 0x03	; 3
    3624:	9c 93       	st	X, r25
    3626:	8e 93       	st	-X, r24
    3628:	12 97       	sbiw	r26, 0x02	; 2
    362a:	e0 e0       	ldi	r30, 0x00	; 0
    362c:	f0 e0       	ldi	r31, 0x00	; 0
    362e:	d8 01       	movw	r26, r16
    3630:	12 96       	adiw	r26, 0x02	; 2
    3632:	8d 91       	ld	r24, X+
    3634:	9c 91       	ld	r25, X
    3636:	13 97       	sbiw	r26, 0x03	; 3
    3638:	00 97       	sbiw	r24, 0x00	; 0
    363a:	19 f0       	breq	.+6      	; 0x3642 <free+0xf0>
    363c:	f8 01       	movw	r30, r16
    363e:	8c 01       	movw	r16, r24
    3640:	f6 cf       	rjmp	.-20     	; 0x362e <free+0xdc>
    3642:	8d 91       	ld	r24, X+
    3644:	9c 91       	ld	r25, X
    3646:	98 01       	movw	r18, r16
    3648:	2e 5f       	subi	r18, 0xFE	; 254
    364a:	3f 4f       	sbci	r19, 0xFF	; 255
    364c:	82 0f       	add	r24, r18
    364e:	93 1f       	adc	r25, r19
    3650:	20 91 a8 03 	lds	r18, 0x03A8
    3654:	30 91 a9 03 	lds	r19, 0x03A9
    3658:	28 17       	cp	r18, r24
    365a:	39 07       	cpc	r19, r25
    365c:	69 f4       	brne	.+26     	; 0x3678 <free+0x126>
    365e:	30 97       	sbiw	r30, 0x00	; 0
    3660:	29 f4       	brne	.+10     	; 0x366c <free+0x11a>
    3662:	10 92 ab 03 	sts	0x03AB, r1
    3666:	10 92 aa 03 	sts	0x03AA, r1
    366a:	02 c0       	rjmp	.+4      	; 0x3670 <free+0x11e>
    366c:	13 82       	std	Z+3, r1	; 0x03
    366e:	12 82       	std	Z+2, r1	; 0x02
    3670:	10 93 a9 03 	sts	0x03A9, r17
    3674:	00 93 a8 03 	sts	0x03A8, r16
    3678:	df 91       	pop	r29
    367a:	cf 91       	pop	r28
    367c:	1f 91       	pop	r17
    367e:	0f 91       	pop	r16
    3680:	08 95       	ret

00003682 <__ftoa_engine>:
    3682:	28 30       	cpi	r18, 0x08	; 8
    3684:	08 f0       	brcs	.+2      	; 0x3688 <__ftoa_engine+0x6>
    3686:	27 e0       	ldi	r18, 0x07	; 7
    3688:	33 27       	eor	r19, r19
    368a:	da 01       	movw	r26, r20
    368c:	99 0f       	add	r25, r25
    368e:	31 1d       	adc	r19, r1
    3690:	87 fd       	sbrc	r24, 7
    3692:	91 60       	ori	r25, 0x01	; 1
    3694:	00 96       	adiw	r24, 0x00	; 0
    3696:	61 05       	cpc	r22, r1
    3698:	71 05       	cpc	r23, r1
    369a:	39 f4       	brne	.+14     	; 0x36aa <__ftoa_engine+0x28>
    369c:	32 60       	ori	r19, 0x02	; 2
    369e:	2e 5f       	subi	r18, 0xFE	; 254
    36a0:	3d 93       	st	X+, r19
    36a2:	30 e3       	ldi	r19, 0x30	; 48
    36a4:	2a 95       	dec	r18
    36a6:	e1 f7       	brne	.-8      	; 0x36a0 <__ftoa_engine+0x1e>
    36a8:	08 95       	ret
    36aa:	9f 3f       	cpi	r25, 0xFF	; 255
    36ac:	30 f0       	brcs	.+12     	; 0x36ba <__ftoa_engine+0x38>
    36ae:	80 38       	cpi	r24, 0x80	; 128
    36b0:	71 05       	cpc	r23, r1
    36b2:	61 05       	cpc	r22, r1
    36b4:	09 f0       	breq	.+2      	; 0x36b8 <__ftoa_engine+0x36>
    36b6:	3c 5f       	subi	r19, 0xFC	; 252
    36b8:	3c 5f       	subi	r19, 0xFC	; 252
    36ba:	3d 93       	st	X+, r19
    36bc:	91 30       	cpi	r25, 0x01	; 1
    36be:	08 f0       	brcs	.+2      	; 0x36c2 <__ftoa_engine+0x40>
    36c0:	80 68       	ori	r24, 0x80	; 128
    36c2:	91 1d       	adc	r25, r1
    36c4:	df 93       	push	r29
    36c6:	cf 93       	push	r28
    36c8:	1f 93       	push	r17
    36ca:	0f 93       	push	r16
    36cc:	ff 92       	push	r15
    36ce:	ef 92       	push	r14
    36d0:	19 2f       	mov	r17, r25
    36d2:	98 7f       	andi	r25, 0xF8	; 248
    36d4:	96 95       	lsr	r25
    36d6:	e9 2f       	mov	r30, r25
    36d8:	96 95       	lsr	r25
    36da:	96 95       	lsr	r25
    36dc:	e9 0f       	add	r30, r25
    36de:	ff 27       	eor	r31, r31
    36e0:	e2 52       	subi	r30, 0x22	; 34
    36e2:	fe 4f       	sbci	r31, 0xFE	; 254
    36e4:	99 27       	eor	r25, r25
    36e6:	33 27       	eor	r19, r19
    36e8:	ee 24       	eor	r14, r14
    36ea:	ff 24       	eor	r15, r15
    36ec:	a7 01       	movw	r20, r14
    36ee:	e7 01       	movw	r28, r14
    36f0:	05 90       	lpm	r0, Z+
    36f2:	08 94       	sec
    36f4:	07 94       	ror	r0
    36f6:	28 f4       	brcc	.+10     	; 0x3702 <__ftoa_engine+0x80>
    36f8:	36 0f       	add	r19, r22
    36fa:	e7 1e       	adc	r14, r23
    36fc:	f8 1e       	adc	r15, r24
    36fe:	49 1f       	adc	r20, r25
    3700:	51 1d       	adc	r21, r1
    3702:	66 0f       	add	r22, r22
    3704:	77 1f       	adc	r23, r23
    3706:	88 1f       	adc	r24, r24
    3708:	99 1f       	adc	r25, r25
    370a:	06 94       	lsr	r0
    370c:	a1 f7       	brne	.-24     	; 0x36f6 <__ftoa_engine+0x74>
    370e:	05 90       	lpm	r0, Z+
    3710:	07 94       	ror	r0
    3712:	28 f4       	brcc	.+10     	; 0x371e <__ftoa_engine+0x9c>
    3714:	e7 0e       	add	r14, r23
    3716:	f8 1e       	adc	r15, r24
    3718:	49 1f       	adc	r20, r25
    371a:	56 1f       	adc	r21, r22
    371c:	c1 1d       	adc	r28, r1
    371e:	77 0f       	add	r23, r23
    3720:	88 1f       	adc	r24, r24
    3722:	99 1f       	adc	r25, r25
    3724:	66 1f       	adc	r22, r22
    3726:	06 94       	lsr	r0
    3728:	a1 f7       	brne	.-24     	; 0x3712 <__ftoa_engine+0x90>
    372a:	05 90       	lpm	r0, Z+
    372c:	07 94       	ror	r0
    372e:	28 f4       	brcc	.+10     	; 0x373a <__ftoa_engine+0xb8>
    3730:	f8 0e       	add	r15, r24
    3732:	49 1f       	adc	r20, r25
    3734:	56 1f       	adc	r21, r22
    3736:	c7 1f       	adc	r28, r23
    3738:	d1 1d       	adc	r29, r1
    373a:	88 0f       	add	r24, r24
    373c:	99 1f       	adc	r25, r25
    373e:	66 1f       	adc	r22, r22
    3740:	77 1f       	adc	r23, r23
    3742:	06 94       	lsr	r0
    3744:	a1 f7       	brne	.-24     	; 0x372e <__ftoa_engine+0xac>
    3746:	05 90       	lpm	r0, Z+
    3748:	07 94       	ror	r0
    374a:	20 f4       	brcc	.+8      	; 0x3754 <__ftoa_engine+0xd2>
    374c:	49 0f       	add	r20, r25
    374e:	56 1f       	adc	r21, r22
    3750:	c7 1f       	adc	r28, r23
    3752:	d8 1f       	adc	r29, r24
    3754:	99 0f       	add	r25, r25
    3756:	66 1f       	adc	r22, r22
    3758:	77 1f       	adc	r23, r23
    375a:	88 1f       	adc	r24, r24
    375c:	06 94       	lsr	r0
    375e:	a9 f7       	brne	.-22     	; 0x374a <__ftoa_engine+0xc8>
    3760:	84 91       	lpm	r24, Z
    3762:	10 95       	com	r17
    3764:	17 70       	andi	r17, 0x07	; 7
    3766:	41 f0       	breq	.+16     	; 0x3778 <__ftoa_engine+0xf6>
    3768:	d6 95       	lsr	r29
    376a:	c7 95       	ror	r28
    376c:	57 95       	ror	r21
    376e:	47 95       	ror	r20
    3770:	f7 94       	ror	r15
    3772:	e7 94       	ror	r14
    3774:	1a 95       	dec	r17
    3776:	c1 f7       	brne	.-16     	; 0x3768 <__ftoa_engine+0xe6>
    3778:	e4 e8       	ldi	r30, 0x84	; 132
    377a:	f1 e0       	ldi	r31, 0x01	; 1
    377c:	68 94       	set
    377e:	15 90       	lpm	r1, Z+
    3780:	15 91       	lpm	r17, Z+
    3782:	35 91       	lpm	r19, Z+
    3784:	65 91       	lpm	r22, Z+
    3786:	95 91       	lpm	r25, Z+
    3788:	05 90       	lpm	r0, Z+
    378a:	7f e2       	ldi	r23, 0x2F	; 47
    378c:	73 95       	inc	r23
    378e:	e1 18       	sub	r14, r1
    3790:	f1 0a       	sbc	r15, r17
    3792:	43 0b       	sbc	r20, r19
    3794:	56 0b       	sbc	r21, r22
    3796:	c9 0b       	sbc	r28, r25
    3798:	d0 09       	sbc	r29, r0
    379a:	c0 f7       	brcc	.-16     	; 0x378c <__ftoa_engine+0x10a>
    379c:	e1 0c       	add	r14, r1
    379e:	f1 1e       	adc	r15, r17
    37a0:	43 1f       	adc	r20, r19
    37a2:	56 1f       	adc	r21, r22
    37a4:	c9 1f       	adc	r28, r25
    37a6:	d0 1d       	adc	r29, r0
    37a8:	7e f4       	brtc	.+30     	; 0x37c8 <__ftoa_engine+0x146>
    37aa:	70 33       	cpi	r23, 0x30	; 48
    37ac:	11 f4       	brne	.+4      	; 0x37b2 <__ftoa_engine+0x130>
    37ae:	8a 95       	dec	r24
    37b0:	e6 cf       	rjmp	.-52     	; 0x377e <__ftoa_engine+0xfc>
    37b2:	e8 94       	clt
    37b4:	01 50       	subi	r16, 0x01	; 1
    37b6:	30 f0       	brcs	.+12     	; 0x37c4 <__ftoa_engine+0x142>
    37b8:	08 0f       	add	r16, r24
    37ba:	0a f4       	brpl	.+2      	; 0x37be <__ftoa_engine+0x13c>
    37bc:	00 27       	eor	r16, r16
    37be:	02 17       	cp	r16, r18
    37c0:	08 f4       	brcc	.+2      	; 0x37c4 <__ftoa_engine+0x142>
    37c2:	20 2f       	mov	r18, r16
    37c4:	23 95       	inc	r18
    37c6:	02 2f       	mov	r16, r18
    37c8:	7a 33       	cpi	r23, 0x3A	; 58
    37ca:	28 f0       	brcs	.+10     	; 0x37d6 <__ftoa_engine+0x154>
    37cc:	79 e3       	ldi	r23, 0x39	; 57
    37ce:	7d 93       	st	X+, r23
    37d0:	2a 95       	dec	r18
    37d2:	e9 f7       	brne	.-6      	; 0x37ce <__ftoa_engine+0x14c>
    37d4:	10 c0       	rjmp	.+32     	; 0x37f6 <__ftoa_engine+0x174>
    37d6:	7d 93       	st	X+, r23
    37d8:	2a 95       	dec	r18
    37da:	89 f6       	brne	.-94     	; 0x377e <__ftoa_engine+0xfc>
    37dc:	06 94       	lsr	r0
    37de:	97 95       	ror	r25
    37e0:	67 95       	ror	r22
    37e2:	37 95       	ror	r19
    37e4:	17 95       	ror	r17
    37e6:	17 94       	ror	r1
    37e8:	e1 18       	sub	r14, r1
    37ea:	f1 0a       	sbc	r15, r17
    37ec:	43 0b       	sbc	r20, r19
    37ee:	56 0b       	sbc	r21, r22
    37f0:	c9 0b       	sbc	r28, r25
    37f2:	d0 09       	sbc	r29, r0
    37f4:	98 f0       	brcs	.+38     	; 0x381c <__ftoa_engine+0x19a>
    37f6:	23 95       	inc	r18
    37f8:	7e 91       	ld	r23, -X
    37fa:	73 95       	inc	r23
    37fc:	7a 33       	cpi	r23, 0x3A	; 58
    37fe:	08 f0       	brcs	.+2      	; 0x3802 <__ftoa_engine+0x180>
    3800:	70 e3       	ldi	r23, 0x30	; 48
    3802:	7c 93       	st	X, r23
    3804:	20 13       	cpse	r18, r16
    3806:	b8 f7       	brcc	.-18     	; 0x37f6 <__ftoa_engine+0x174>
    3808:	7e 91       	ld	r23, -X
    380a:	70 61       	ori	r23, 0x10	; 16
    380c:	7d 93       	st	X+, r23
    380e:	30 f0       	brcs	.+12     	; 0x381c <__ftoa_engine+0x19a>
    3810:	83 95       	inc	r24
    3812:	71 e3       	ldi	r23, 0x31	; 49
    3814:	7d 93       	st	X+, r23
    3816:	70 e3       	ldi	r23, 0x30	; 48
    3818:	2a 95       	dec	r18
    381a:	e1 f7       	brne	.-8      	; 0x3814 <__ftoa_engine+0x192>
    381c:	11 24       	eor	r1, r1
    381e:	ef 90       	pop	r14
    3820:	ff 90       	pop	r15
    3822:	0f 91       	pop	r16
    3824:	1f 91       	pop	r17
    3826:	cf 91       	pop	r28
    3828:	df 91       	pop	r29
    382a:	99 27       	eor	r25, r25
    382c:	87 fd       	sbrc	r24, 7
    382e:	90 95       	com	r25
    3830:	08 95       	ret

00003832 <strnlen_P>:
    3832:	fc 01       	movw	r30, r24
    3834:	05 90       	lpm	r0, Z+
    3836:	61 50       	subi	r22, 0x01	; 1
    3838:	70 40       	sbci	r23, 0x00	; 0
    383a:	01 10       	cpse	r0, r1
    383c:	d8 f7       	brcc	.-10     	; 0x3834 <strnlen_P+0x2>
    383e:	80 95       	com	r24
    3840:	90 95       	com	r25
    3842:	8e 0f       	add	r24, r30
    3844:	9f 1f       	adc	r25, r31
    3846:	08 95       	ret

00003848 <memset>:
    3848:	dc 01       	movw	r26, r24
    384a:	01 c0       	rjmp	.+2      	; 0x384e <memset+0x6>
    384c:	6d 93       	st	X+, r22
    384e:	41 50       	subi	r20, 0x01	; 1
    3850:	50 40       	sbci	r21, 0x00	; 0
    3852:	e0 f7       	brcc	.-8      	; 0x384c <memset+0x4>
    3854:	08 95       	ret

00003856 <strnlen>:
    3856:	fc 01       	movw	r30, r24
    3858:	61 50       	subi	r22, 0x01	; 1
    385a:	70 40       	sbci	r23, 0x00	; 0
    385c:	01 90       	ld	r0, Z+
    385e:	01 10       	cpse	r0, r1
    3860:	d8 f7       	brcc	.-10     	; 0x3858 <strnlen+0x2>
    3862:	80 95       	com	r24
    3864:	90 95       	com	r25
    3866:	8e 0f       	add	r24, r30
    3868:	9f 1f       	adc	r25, r31
    386a:	08 95       	ret

0000386c <fputc>:
    386c:	0f 93       	push	r16
    386e:	1f 93       	push	r17
    3870:	cf 93       	push	r28
    3872:	df 93       	push	r29
    3874:	fb 01       	movw	r30, r22
    3876:	23 81       	ldd	r18, Z+3	; 0x03
    3878:	21 fd       	sbrc	r18, 1
    387a:	03 c0       	rjmp	.+6      	; 0x3882 <fputc+0x16>
    387c:	8f ef       	ldi	r24, 0xFF	; 255
    387e:	9f ef       	ldi	r25, 0xFF	; 255
    3880:	28 c0       	rjmp	.+80     	; 0x38d2 <fputc+0x66>
    3882:	22 ff       	sbrs	r18, 2
    3884:	16 c0       	rjmp	.+44     	; 0x38b2 <fputc+0x46>
    3886:	46 81       	ldd	r20, Z+6	; 0x06
    3888:	57 81       	ldd	r21, Z+7	; 0x07
    388a:	24 81       	ldd	r18, Z+4	; 0x04
    388c:	35 81       	ldd	r19, Z+5	; 0x05
    388e:	42 17       	cp	r20, r18
    3890:	53 07       	cpc	r21, r19
    3892:	44 f4       	brge	.+16     	; 0x38a4 <fputc+0x38>
    3894:	a0 81       	ld	r26, Z
    3896:	b1 81       	ldd	r27, Z+1	; 0x01
    3898:	9d 01       	movw	r18, r26
    389a:	2f 5f       	subi	r18, 0xFF	; 255
    389c:	3f 4f       	sbci	r19, 0xFF	; 255
    389e:	31 83       	std	Z+1, r19	; 0x01
    38a0:	20 83       	st	Z, r18
    38a2:	8c 93       	st	X, r24
    38a4:	26 81       	ldd	r18, Z+6	; 0x06
    38a6:	37 81       	ldd	r19, Z+7	; 0x07
    38a8:	2f 5f       	subi	r18, 0xFF	; 255
    38aa:	3f 4f       	sbci	r19, 0xFF	; 255
    38ac:	37 83       	std	Z+7, r19	; 0x07
    38ae:	26 83       	std	Z+6, r18	; 0x06
    38b0:	10 c0       	rjmp	.+32     	; 0x38d2 <fputc+0x66>
    38b2:	eb 01       	movw	r28, r22
    38b4:	09 2f       	mov	r16, r25
    38b6:	18 2f       	mov	r17, r24
    38b8:	00 84       	ldd	r0, Z+8	; 0x08
    38ba:	f1 85       	ldd	r31, Z+9	; 0x09
    38bc:	e0 2d       	mov	r30, r0
    38be:	09 95       	icall
    38c0:	89 2b       	or	r24, r25
    38c2:	e1 f6       	brne	.-72     	; 0x387c <fputc+0x10>
    38c4:	8e 81       	ldd	r24, Y+6	; 0x06
    38c6:	9f 81       	ldd	r25, Y+7	; 0x07
    38c8:	01 96       	adiw	r24, 0x01	; 1
    38ca:	9f 83       	std	Y+7, r25	; 0x07
    38cc:	8e 83       	std	Y+6, r24	; 0x06
    38ce:	81 2f       	mov	r24, r17
    38d0:	90 2f       	mov	r25, r16
    38d2:	df 91       	pop	r29
    38d4:	cf 91       	pop	r28
    38d6:	1f 91       	pop	r17
    38d8:	0f 91       	pop	r16
    38da:	08 95       	ret

000038dc <sprintf>:
    38dc:	0f 93       	push	r16
    38de:	1f 93       	push	r17
    38e0:	cf 93       	push	r28
    38e2:	df 93       	push	r29
    38e4:	cd b7       	in	r28, 0x3d	; 61
    38e6:	de b7       	in	r29, 0x3e	; 62
    38e8:	2e 97       	sbiw	r28, 0x0e	; 14
    38ea:	0f b6       	in	r0, 0x3f	; 63
    38ec:	f8 94       	cli
    38ee:	de bf       	out	0x3e, r29	; 62
    38f0:	0f be       	out	0x3f, r0	; 63
    38f2:	cd bf       	out	0x3d, r28	; 61
    38f4:	0d 89       	ldd	r16, Y+21	; 0x15
    38f6:	1e 89       	ldd	r17, Y+22	; 0x16
    38f8:	86 e0       	ldi	r24, 0x06	; 6
    38fa:	8c 83       	std	Y+4, r24	; 0x04
    38fc:	1a 83       	std	Y+2, r17	; 0x02
    38fe:	09 83       	std	Y+1, r16	; 0x01
    3900:	8f ef       	ldi	r24, 0xFF	; 255
    3902:	9f e7       	ldi	r25, 0x7F	; 127
    3904:	9e 83       	std	Y+6, r25	; 0x06
    3906:	8d 83       	std	Y+5, r24	; 0x05
    3908:	ae 01       	movw	r20, r28
    390a:	47 5e       	subi	r20, 0xE7	; 231
    390c:	5f 4f       	sbci	r21, 0xFF	; 255
    390e:	6f 89       	ldd	r22, Y+23	; 0x17
    3910:	78 8d       	ldd	r23, Y+24	; 0x18
    3912:	ce 01       	movw	r24, r28
    3914:	01 96       	adiw	r24, 0x01	; 1
    3916:	bf d9       	rcall	.-3202   	; 0x2c96 <vfprintf>
    3918:	2f 81       	ldd	r18, Y+7	; 0x07
    391a:	38 85       	ldd	r19, Y+8	; 0x08
    391c:	f8 01       	movw	r30, r16
    391e:	e2 0f       	add	r30, r18
    3920:	f3 1f       	adc	r31, r19
    3922:	10 82       	st	Z, r1
    3924:	2e 96       	adiw	r28, 0x0e	; 14
    3926:	0f b6       	in	r0, 0x3f	; 63
    3928:	f8 94       	cli
    392a:	de bf       	out	0x3e, r29	; 62
    392c:	0f be       	out	0x3f, r0	; 63
    392e:	cd bf       	out	0x3d, r28	; 61
    3930:	df 91       	pop	r29
    3932:	cf 91       	pop	r28
    3934:	1f 91       	pop	r17
    3936:	0f 91       	pop	r16
    3938:	08 95       	ret

0000393a <__ultoa_invert>:
    393a:	fa 01       	movw	r30, r20
    393c:	aa 27       	eor	r26, r26
    393e:	28 30       	cpi	r18, 0x08	; 8
    3940:	51 f1       	breq	.+84     	; 0x3996 <__ultoa_invert+0x5c>
    3942:	20 31       	cpi	r18, 0x10	; 16
    3944:	81 f1       	breq	.+96     	; 0x39a6 <__ultoa_invert+0x6c>
    3946:	e8 94       	clt
    3948:	6f 93       	push	r22
    394a:	6e 7f       	andi	r22, 0xFE	; 254
    394c:	6e 5f       	subi	r22, 0xFE	; 254
    394e:	7f 4f       	sbci	r23, 0xFF	; 255
    3950:	8f 4f       	sbci	r24, 0xFF	; 255
    3952:	9f 4f       	sbci	r25, 0xFF	; 255
    3954:	af 4f       	sbci	r26, 0xFF	; 255
    3956:	b1 e0       	ldi	r27, 0x01	; 1
    3958:	3e d0       	rcall	.+124    	; 0x39d6 <__ultoa_invert+0x9c>
    395a:	b4 e0       	ldi	r27, 0x04	; 4
    395c:	3c d0       	rcall	.+120    	; 0x39d6 <__ultoa_invert+0x9c>
    395e:	67 0f       	add	r22, r23
    3960:	78 1f       	adc	r23, r24
    3962:	89 1f       	adc	r24, r25
    3964:	9a 1f       	adc	r25, r26
    3966:	a1 1d       	adc	r26, r1
    3968:	68 0f       	add	r22, r24
    396a:	79 1f       	adc	r23, r25
    396c:	8a 1f       	adc	r24, r26
    396e:	91 1d       	adc	r25, r1
    3970:	a1 1d       	adc	r26, r1
    3972:	6a 0f       	add	r22, r26
    3974:	71 1d       	adc	r23, r1
    3976:	81 1d       	adc	r24, r1
    3978:	91 1d       	adc	r25, r1
    397a:	a1 1d       	adc	r26, r1
    397c:	20 d0       	rcall	.+64     	; 0x39be <__ultoa_invert+0x84>
    397e:	09 f4       	brne	.+2      	; 0x3982 <__ultoa_invert+0x48>
    3980:	68 94       	set
    3982:	3f 91       	pop	r19
    3984:	2a e0       	ldi	r18, 0x0A	; 10
    3986:	26 9f       	mul	r18, r22
    3988:	11 24       	eor	r1, r1
    398a:	30 19       	sub	r19, r0
    398c:	30 5d       	subi	r19, 0xD0	; 208
    398e:	31 93       	st	Z+, r19
    3990:	de f6       	brtc	.-74     	; 0x3948 <__ultoa_invert+0xe>
    3992:	cf 01       	movw	r24, r30
    3994:	08 95       	ret
    3996:	46 2f       	mov	r20, r22
    3998:	47 70       	andi	r20, 0x07	; 7
    399a:	40 5d       	subi	r20, 0xD0	; 208
    399c:	41 93       	st	Z+, r20
    399e:	b3 e0       	ldi	r27, 0x03	; 3
    39a0:	0f d0       	rcall	.+30     	; 0x39c0 <__ultoa_invert+0x86>
    39a2:	c9 f7       	brne	.-14     	; 0x3996 <__ultoa_invert+0x5c>
    39a4:	f6 cf       	rjmp	.-20     	; 0x3992 <__ultoa_invert+0x58>
    39a6:	46 2f       	mov	r20, r22
    39a8:	4f 70       	andi	r20, 0x0F	; 15
    39aa:	40 5d       	subi	r20, 0xD0	; 208
    39ac:	4a 33       	cpi	r20, 0x3A	; 58
    39ae:	18 f0       	brcs	.+6      	; 0x39b6 <__ultoa_invert+0x7c>
    39b0:	49 5d       	subi	r20, 0xD9	; 217
    39b2:	31 fd       	sbrc	r19, 1
    39b4:	40 52       	subi	r20, 0x20	; 32
    39b6:	41 93       	st	Z+, r20
    39b8:	02 d0       	rcall	.+4      	; 0x39be <__ultoa_invert+0x84>
    39ba:	a9 f7       	brne	.-22     	; 0x39a6 <__ultoa_invert+0x6c>
    39bc:	ea cf       	rjmp	.-44     	; 0x3992 <__ultoa_invert+0x58>
    39be:	b4 e0       	ldi	r27, 0x04	; 4
    39c0:	a6 95       	lsr	r26
    39c2:	97 95       	ror	r25
    39c4:	87 95       	ror	r24
    39c6:	77 95       	ror	r23
    39c8:	67 95       	ror	r22
    39ca:	ba 95       	dec	r27
    39cc:	c9 f7       	brne	.-14     	; 0x39c0 <__ultoa_invert+0x86>
    39ce:	00 97       	sbiw	r24, 0x00	; 0
    39d0:	61 05       	cpc	r22, r1
    39d2:	71 05       	cpc	r23, r1
    39d4:	08 95       	ret
    39d6:	9b 01       	movw	r18, r22
    39d8:	ac 01       	movw	r20, r24
    39da:	0a 2e       	mov	r0, r26
    39dc:	06 94       	lsr	r0
    39de:	57 95       	ror	r21
    39e0:	47 95       	ror	r20
    39e2:	37 95       	ror	r19
    39e4:	27 95       	ror	r18
    39e6:	ba 95       	dec	r27
    39e8:	c9 f7       	brne	.-14     	; 0x39dc <__ultoa_invert+0xa2>
    39ea:	62 0f       	add	r22, r18
    39ec:	73 1f       	adc	r23, r19
    39ee:	84 1f       	adc	r24, r20
    39f0:	95 1f       	adc	r25, r21
    39f2:	a0 1d       	adc	r26, r0
    39f4:	08 95       	ret

000039f6 <_exit>:
    39f6:	f8 94       	cli

000039f8 <__stop_program>:
    39f8:	ff cf       	rjmp	.-2      	; 0x39f8 <__stop_program>
